MODULE Linux x86_64 357E7DC0DC409F3B13326E61DDBEC0CD0 test
INFO CODE_ID C07D7E3540DC3B9F13326E61DDBEC0CD82934F6E
FUNC 3c0e 2c 0 MinidumpWriter::~MinidumpWriter
FUNC 3c3a 14 0 google_breakpad::TypedMDRVA<unsigned int>::Flush()
FUNC 4109 58 0 Thread1()
FUNC 4161 6a 0 Thread2()
FUNC 41cb 69 0 CrashCallback(google_breakpad::MinidumpDescriptor const&, void*, bool)
FUNC 4234 218 0 main
FUNC 444c 56 0 __static_initialization_and_destruction_0
FUNC 44a2 19 0 _GLOBAL__sub_I_Thread1Crashed
FUNC 44bb 3e 0 std::char_traits<char>::length(char const*)
FUNC 44fa 1a 0 std::thread::id::id()
FUNC 4514 28 0 std::thread::~thread()
FUNC 453c 57 0 std::thread::joinable() const
FUNC 4593 20 0 std::operator==(std::thread::id, std::thread::id)
FUNC 45b4 15 0 std::chrono::duration<long, std::ratio<1l, 1000000000l> >::count() const
FUNC 45ca 21 0 std::chrono::duration<long, std::ratio<1l, 1000000000l> >::duration<long, void>(long const&)
FUNC 45eb f 0 std::chrono::duration_values<long>::zero()
FUNC 45fa 21 0 std::chrono::duration<long, std::ratio<1l, 1l> >::duration<long, void>(long const&)
FUNC 461c 3e 0 google_breakpad::MicrodumpExtraInfo::MicrodumpExtraInfo()
FUNC 465a d2 0 google_breakpad::MinidumpDescriptor::MinidumpDescriptor(std::__cxx11::basic_string<char, std::char_traits<char>, std::allocator<char> > const&)
FUNC 472c 16 0 google_breakpad::MinidumpDescriptor::path() const
FUNC 4742 33 0 google_breakpad::MinidumpDescriptor::~MinidumpDescriptor()
FUNC 4775 25 0 __gnu_cxx::char_traits<char>::eq(char const&, char const&)
FUNC 479a 6d 0 __gnu_cxx::char_traits<char>::length(char const*)
FUNC 4808 1f 0 std::__cxx11::basic_string<char, std::char_traits<char>, std::allocator<char> >::_Alloc_hider::~_Alloc_hider()
FUNC 4828 15 0 std::chrono::duration<long, std::ratio<1l, 1l> >::count() const
FUNC 483e 23 0 std::chrono::duration<long, std::ratio<1l, 1l> >::duration<int, void>(int const&)
FUNC 4861 2c 0 bool std::chrono::operator<=<long, std::ratio<1l, 1l>, long, std::ratio<1l, 1l> >(std::chrono::duration<long, std::ratio<1l, 1l> > const&, std::chrono::duration<long, std::ratio<1l, 1l> > const&)
FUNC 488d 51 0 std::chrono::duration<long, std::ratio<1l, 1l> >::zero()
FUNC 48de 1e 0 std::enable_if<std::chrono::__is_duration<std::chrono::duration<long, std::ratio<1l, 1l> > >::value, std::chrono::duration<long, std::ratio<1l, 1l> > >::type std::chrono::duration_cast<std::chrono::duration<long, std::ratio<1l, 1l> >, long, std::ratio<1l, 1l> >(std::chrono::duration<long, std::ratio<1l, 1l> > const&)
FUNC 48fc 1e 0 std::enable_if<std::chrono::__is_duration<std::chrono::duration<long, std::ratio<1l, 1000000000l> > >::value, std::chrono::duration<long, std::ratio<1l, 1000000000l> > >::type std::chrono::duration_cast<std::chrono::duration<long, std::ratio<1l, 1000000000l> >, long, std::ratio<1l, 1l> >(std::chrono::duration<long, std::ratio<1l, 1l> > const&)
FUNC 491a 93 0 std::common_type<std::chrono::duration<long, std::ratio<1l, 1l> >, std::chrono::duration<long, std::ratio<1l, 1l> > >::type std::chrono::operator-<long, std::ratio<1l, 1l>, long, std::ratio<1l, 1l> >(std::chrono::duration<long, std::ratio<1l, 1l> > const&, std::chrono::duration<long, std::ratio<1l, 1l> > const&)
FUNC 49ad e8 0 void std::this_thread::sleep_for<long, std::ratio<1l, 1l> >(std::chrono::duration<long, std::ratio<1l, 1l> > const&)
FUNC 4a96 c3 0 std::__cxx11::basic_string<char, std::char_traits<char>, std::allocator<char> >::basic_string<std::allocator<char> >(char const*, std::allocator<char> const&)
FUNC 4b5a ef 0 std::thread::thread<void (&)(), , void>(void (&)())
FUNC 4c49 75 0 bool std::chrono::operator< <long, std::ratio<1l, 1l>, long, std::ratio<1l, 1l> >(std::chrono::duration<long, std::ratio<1l, 1l> > const&, std::chrono::duration<long, std::ratio<1l, 1l> > const&)
FUNC 4cbe 5c 0 std::chrono::duration<long, std::ratio<1l, 1l> > std::chrono::__duration_cast_impl<std::chrono::duration<long, std::ratio<1l, 1l> >, std::ratio<1l, 1l>, long, true, true>::__cast<long, std::ratio<1l, 1l> >(std::chrono::duration<long, std::ratio<1l, 1l> > const&)
FUNC 4d1a 63 0 std::chrono::duration<long, std::ratio<1l, 1000000000l> > std::chrono::__duration_cast_impl<std::chrono::duration<long, std::ratio<1l, 1000000000l> >, std::ratio<1000000000l, 1l>, long, false, true>::__cast<long, std::ratio<1l, 1l> >(std::chrono::duration<long, std::ratio<1l, 1l> > const&)
FUNC 4d7d 35 0 std::iterator_traits<char const*>::difference_type std::distance<char const*>(char const*, char const*)
FUNC 4db2 145 0 void std::__cxx11::basic_string<char, std::char_traits<char>, std::allocator<char> >::_M_construct<char const*>(char const*, char const*, std::forward_iterator_tag)
FUNC 4ef7 12 0 void (&std::forward<void (&)()>(std::remove_reference<void (&)()>::type&))()
FUNC 4f0a 1d 0 std::thread::_State::_State()
FUNC 4f28 74 0 std::thread::_State_impl<std::thread::_Invoker<std::tuple<void (*)()> > >::_State_impl<void (&)()>(void (&)())
FUNC 4f9c 2a 0 std::__uniq_ptr_data<std::thread::_State, std::default_delete<std::thread::_State>, true, true>::__uniq_ptr_impl(std::thread::_State*)
FUNC 4fc6 2a 0 std::unique_ptr<std::thread::_State, std::default_delete<std::thread::_State> >::unique_ptr<std::default_delete<std::thread::_State>, void>(std::thread::_State*)
FUNC 4ff0 68 0 std::unique_ptr<std::thread::_State, std::default_delete<std::thread::_State> >::~unique_ptr()
FUNC 5058 16 0 bool __gnu_cxx::__is_null_pointer<char const>(char const*)
FUNC 506e e 0 std::iterator_traits<char const*>::iterator_category std::__iterator_category<char const*>(char const* const&)
FUNC 507c 1a 0 std::iterator_traits<char const*>::difference_type std::__distance<char const*>(char const*, char const*, std::random_access_iterator_tag)
FUNC 5096 62 0 std::thread::_Invoker<std::tuple<void (*)()> >::_Invoker<void (&)()>(void (&)())
FUNC 50f8 3b 0 std::__uniq_ptr_impl<std::thread::_State, std::default_delete<std::thread::_State> >::__uniq_ptr_impl(std::thread::_State*)
FUNC 5134 1e 0 std::__uniq_ptr_impl<std::thread::_State, std::default_delete<std::thread::_State> >::_M_ptr()
FUNC 5152 1e 0 std::unique_ptr<std::thread::_State, std::default_delete<std::thread::_State> >::get_deleter()
FUNC 5170 12 0 std::remove_reference<std::thread::_State*&>::type&& std::move<std::thread::_State*&>(std::thread::_State*&)
FUNC 5182 2f 0 std::default_delete<std::thread::_State>::operator()(std::thread::_State*) const
FUNC 51b2 2a 0 std::tuple<void (*)()>::tuple<true, true>(void (* const&)())
FUNC 51dc 1f 0 std::tuple<std::thread::_State*, std::default_delete<std::thread::_State> >::tuple<true, true>()
FUNC 51fb 1e 0 std::tuple_element<0ul, std::tuple<std::thread::_State*, std::default_delete<std::thread::_State> > >::type& std::get<0ul, std::thread::_State*, std::default_delete<std::thread::_State> >(std::tuple<std::thread::_State*, std::default_delete<std::thread::_State> >&)
FUNC 521a 1e 0 std::__uniq_ptr_impl<std::thread::_State, std::default_delete<std::thread::_State> >::_M_deleter()
FUNC 5238 2a 0 std::_Tuple_impl<0ul, void (*)()>::_Tuple_impl(void (* const&)())
FUNC 5262 2b 0 std::_Tuple_impl<0ul, std::thread::_State*, std::default_delete<std::thread::_State> >::_Tuple_impl()
FUNC 528d 1e 0 std::thread::_State*& std::__get_helper<0ul, std::thread::_State*, std::default_delete<std::thread::_State> >(std::_Tuple_impl<0ul, std::thread::_State*, std::default_delete<std::thread::_State> >&)
FUNC 52ab 1e 0 std::tuple_element<1ul, std::tuple<std::thread::_State*, std::default_delete<std::thread::_State> > >::type& std::get<1ul, std::thread::_State*, std::default_delete<std::thread::_State> >(std::tuple<std::thread::_State*, std::default_delete<std::thread::_State> >&)
FUNC 52ca 21 0 std::_Head_base<0ul, void (*)(), false>::_Head_base(void (* const&)())
FUNC 52ec 1f 0 std::_Tuple_impl<1ul, std::default_delete<std::thread::_State> >::_Tuple_impl()
FUNC 530c 1a 0 std::_Head_base<0ul, std::thread::_State*, false>::_Head_base()
FUNC 5326 1e 0 std::_Tuple_impl<0ul, std::thread::_State*, std::default_delete<std::thread::_State> >::_M_head(std::_Tuple_impl<0ul, std::thread::_State*, std::default_delete<std::thread::_State> >&)
FUNC 5344 1e 0 std::default_delete<std::thread::_State>& std::__get_helper<1ul, std::default_delete<std::thread::_State>>(std::_Tuple_impl<1ul, std::default_delete<std::thread::_State>>&)
FUNC 5362 f 0 std::_Head_base<1ul, std::default_delete<std::thread::_State>, true>::_Head_base()
FUNC 5371 12 0 std::_Head_base<0ul, std::thread::_State*, false>::_M_head(std::_Head_base<0ul, std::thread::_State*, false>&)
FUNC 5383 1e 0 std::_Tuple_impl<1ul, std::default_delete<std::thread::_State> >::_M_head(std::_Tuple_impl<1ul, std::default_delete<std::thread::_State> >&)
FUNC 53a1 12 0 std::_Head_base<1ul, std::default_delete<std::thread::_State>, true>::_M_head(std::_Head_base<1ul, std::default_delete<std::thread::_State>, true>&)
FUNC 53b4 2d 0 std::thread::_State_impl<std::thread::_Invoker<std::tuple<void (*)()> > >::~_State_impl()
FUNC 53e2 2f 0 std::thread::_State_impl<std::thread::_Invoker<std::tuple<void (*)()> > >::~_State_impl()
FUNC 5412 23 0 std::thread::_State_impl<std::thread::_Invoker<std::tuple<void (*)()> > >::_M_run()
FUNC 5436 1f 0 std::thread::_Invoker<std::tuple<void (*)()> >::operator()()
FUNC 5456 2f 0 void std::thread::_Invoker<std::tuple<void (*)()> >::_M_invoke<0ul>(std::_Index_tuple<0ul>)
FUNC 5485 12 0 std::remove_reference<std::tuple<void (*)()>&>::type&& std::move<std::tuple<void (*)()>&>(std::tuple<void (*)()>&)
FUNC 5497 26 0 std::tuple_element<0ul, std::tuple<void (*)()> >::type&& std::get<0ul, void (*)()>(std::tuple<void (*)()>&&)
FUNC 54bd 27 0 std::__invoke_result<void (*)()>::type std::__invoke<void (*)()>(void (*&&)())
FUNC 54e4 1e 0 void (*&std::__get_helper<0ul, void (*)()>(std::_Tuple_impl<0ul, void (*)()>&))()
FUNC 5502 12 0 void (*&&std::forward<void (*)()>(std::remove_reference<void (*)()>::type&))()
FUNC 5514 24 0 void std::__invoke_impl<void, void (*)()>(std::__invoke_other, void (*&&)())
FUNC 5538 1e 0 std::_Tuple_impl<0ul, void (*)()>::_M_head(std::_Tuple_impl<0ul, void (*)()>&)
FUNC 5556 12 0 std::_Head_base<0ul, void (*)(), false>::_M_head(std::_Head_base<0ul, void (*)(), false>&)
FUNC 5570 143 0 google_breakpad::ExceptionHandler::InstallHandlersLocked()
FUNC 56c0 99 0 google_breakpad::ExceptionHandler::RestoreHandlersLocked()
FUNC 5760 327 0 google_breakpad::ExceptionHandler::~ExceptionHandler()
FUNC 5a90 d5 0 google_breakpad::ExceptionHandler::SendContinueSignalToChild()
FUNC 6030 193 0 google_breakpad::ExceptionHandler::HandleSignal(int, siginfo_t*, void*)
FUNC 61d0 1f6 0 google_breakpad::ExceptionHandler::SignalHandler(int, siginfo_t*, void*)
FUNC 63d0 87 0 google_breakpad::ExceptionHandler::SimulateSignalDelivery(int)
FUNC 6460 f5 0 google_breakpad::ExceptionHandler::WaitForContinueSignal()
FUNC 6560 ba 0 google_breakpad::ExceptionHandler::DoDump(int, void const*, unsigned long)
FUNC 6620 82 0 google_breakpad::ExceptionHandler::ThreadEntry(void*)
FUNC 66b0 1b5 0 google_breakpad::ExceptionHandler::WriteMinidump()
FUNC 6870 d8 0 google_breakpad::ExceptionHandler::AddMappingInfo(std::__cxx11::basic_string<char, std::char_traits<char>, std::allocator<char> > const&, unsigned char const*, unsigned long, unsigned long, unsigned long)
FUNC 6950 81 0 google_breakpad::ExceptionHandler::RegisterAppMemory(void*, unsigned long)
FUNC 69e0 5a 0 google_breakpad::ExceptionHandler::UnregisterAppMemory(void*)
FUNC 6ca0 c 0 google_breakpad::SetFirstChanceExceptionHandler(bool (*)(int, siginfo_t*, void*))
FUNC 7240 167 0 void std::vector<google_breakpad::ExceptionHandler*, std::allocator<google_breakpad::ExceptionHandler*> >::_M_realloc_insert<google_breakpad::ExceptionHandler*>(__gnu_cxx::__normal_iterator<google_breakpad::ExceptionHandler**, std::vector<google_breakpad::ExceptionHandler*, std::allocator<google_breakpad::ExceptionHandler*> > >, google_breakpad::ExceptionHandler*&&)
FUNC 73b0 c0 0 void std::__cxx11::basic_string<char, std::char_traits<char>, std::allocator<char> >::_M_construct<char*>(char*, char*, std::forward_iterator_tag)
FUNC 7470 a6 0 google_breakpad::MinidumpDescriptor::MinidumpDescriptor(google_breakpad::MinidumpDescriptor const&)
FUNC 78c0 c2 0 google_breakpad::MinidumpDescriptor::operator=(google_breakpad::MinidumpDescriptor const&)
FUNC 7990 40 0 logger::write(char const*, unsigned long)
FUNC 79d0 53f 0 MicrodumpWriter::DumpModule
FUNC 8ef0 a 0 google_breakpad::LinuxDumper::LateInit()
FUNC 9870 8b 0 google_breakpad::LinuxDumper::~LinuxDumper()
FUNC 9900 1b 0 google_breakpad::LinuxDumper::~LinuxDumper()
FUNC 9920 18 0 google_breakpad::LinuxDumper::SetCrashInfoFromSigInfo(siginfo_t const&)
FUNC 9940 244 0 google_breakpad::LinuxDumper::GetCrashSignalString() const
FUNC 9b90 61 0 google_breakpad::LinuxDumper::GetMappingAbsolutePath(google_breakpad::MappingInfo const&, char*) const
FUNC 9cf0 1a3 0 google_breakpad::LinuxDumper::HandleDeletedFileInMapping(char*) const
FUNC 9ea0 12e 0 google_breakpad::LinuxDumper::GetMappingEffectiveNameAndPath(google_breakpad::MappingInfo const&, char*, unsigned long, char*, unsigned long)
FUNC 9fd0 13d 0 google_breakpad::LinuxDumper::ReadAuxv()
FUNC a110 34 0 google_breakpad::LinuxDumper::Init()
FUNC a150 48 0 google_breakpad::LinuxDumper::StackHasPointerToMapping(unsigned char const*, unsigned long, unsigned long, google_breakpad::MappingInfo const&)
FUNC a1a0 48 0 google_breakpad::LinuxDumper::FindMapping(void const*) const
FUNC a1f0 73 0 google_breakpad::LinuxDumper::GetStackInfo(void const**, unsigned long*, unsigned long)
FUNC a270 40 0 google_breakpad::LinuxDumper::FindMappingNoBias(unsigned long) const
FUNC a2b0 22f 0 google_breakpad::LinuxDumper::SanitizeStackCopy(unsigned char*, unsigned long, unsigned long, unsigned long)
FUNC a4e0 5c 0 google_breakpad::LinuxDumper::HandleDeletedFileInMapping(char*) const
FUNC ae80 2d3 0 std::vector<unsigned long, google_breakpad::PageStdAllocator<unsigned long> >::_M_default_append(unsigned long)
FUNC b160 7 0 google_breakpad::LinuxPtraceDumper::IsPostMortem() const
FUNC b170 189 0 google_breakpad::LinuxPtraceDumper::CopyFromProcess(void*, int, void const*, unsigned long)
FUNC b300 a8 0 google_breakpad::LinuxPtraceDumper::BuildProcPath(char*, int, char const*) const
FUNC b3b0 2b 0 google_breakpad::LinuxPtraceDumper::BuildProcPath(char*, int, char const*) const
FUNC b3e0 bd 0 google_breakpad::LinuxPtraceDumper::ThreadsResume()
FUNC bae0 2b 0 google_breakpad::LinuxPtraceDumper::LinuxPtraceDumper(int)
FUNC bb10 e5 0 google_breakpad::LinuxPtraceDumper::ReadRegisterSet(google_breakpad::ThreadInfo*, int)
FUNC bc00 dd 0 google_breakpad::LinuxPtraceDumper::ReadRegisters(google_breakpad::ThreadInfo*, int)
FUNC c1a0 26d 0 google_breakpad::LinuxPtraceDumper::ThreadsSuspend()
FUNC c410 17 0 google_breakpad::LinuxPtraceDumper::~LinuxPtraceDumper()
FUNC c430 29 0 google_breakpad::LinuxPtraceDumper::~LinuxPtraceDumper()
FUNC c460 2d3 0 std::vector<int, google_breakpad::PageStdAllocator<int> >::_M_default_append(unsigned long)
FUNC c740 25 0 google_breakpad::TypedMDRVA<MDRawDirectory>::CopyIndex(unsigned int, MDRawDirectory*)
FUNC c770 25 0 google_breakpad::TypedMDRVA<unsigned int>::AllocateObjectAndArray(unsigned long, unsigned long)
FUNC c7a0 25 0 MinidumpWriter::MinidumpWriter
FUNC cff0 2c4 0 MinidumpWriter::Init
FUNC 10500 3a 0 google_breakpad::WriteMinidump(char const*, int, void const*, unsigned long, std::__cxx11::list<google_breakpad::MappingEntry, std::allocator<google_breakpad::MappingEntry> > const&, std::__cxx11::list<google_breakpad::AppMemory, std::allocator<google_breakpad::AppMemory> > const&, bool, unsigned long, bool)
FUNC 10540 39 0 google_breakpad::WriteMinidump(int, int, void const*, unsigned long, std::__cxx11::list<google_breakpad::MappingEntry, std::allocator<google_breakpad::MappingEntry> > const&, std::__cxx11::list<google_breakpad::AppMemory, std::allocator<google_breakpad::AppMemory> > const&, bool, unsigned long, bool)
FUNC 10580 38 0 google_breakpad::WriteMinidump(char const*, long, int, void const*, unsigned long, std::__cxx11::list<google_breakpad::MappingEntry, std::allocator<google_breakpad::MappingEntry> > const&, std::__cxx11::list<google_breakpad::AppMemory, std::allocator<google_breakpad::AppMemory> > const&, bool, unsigned long, bool)
FUNC 105c0 3b 0 google_breakpad::WriteMinidump(int, long, int, void const*, unsigned long, std::__cxx11::list<google_breakpad::MappingEntry, std::allocator<google_breakpad::MappingEntry> > const&, std::__cxx11::list<google_breakpad::AppMemory, std::allocator<google_breakpad::AppMemory> > const&, bool, unsigned long, bool)
FUNC 10c10 230 0 google_breakpad::ProcCpuInfoReader::GetNextField(char const**)
FUNC 10e40 2c4 0 void std::vector<MDMemoryDescriptor, google_breakpad::PageStdAllocator<MDMemoryDescriptor> >::_M_realloc_insert<MDMemoryDescriptor const&>(__gnu_cxx::__normal_iterator<MDMemoryDescriptor*, std::vector<MDMemoryDescriptor, google_breakpad::PageStdAllocator<MDMemoryDescriptor> > >, MDMemoryDescriptor const&)
FUNC 11110 25a 0 std::vector<char, google_breakpad::PageStdAllocator<char> >::_M_default_append(unsigned long)
FUNC 11370 34 0 std::__cxx11::_List_base<google_breakpad::MappingEntry, std::allocator<google_breakpad::MappingEntry> >::_M_clear()
FUNC 113b0 34 0 std::__cxx11::_List_base<google_breakpad::AppMemory, std::allocator<google_breakpad::AppMemory> >::_M_clear()
FUNC 113f0 1e6 0 google_breakpad::PEFile::TryGetDebugInfo(char const*, google_breakpad::_RSDS_DEBUG_FORMAT*)
FUNC 115e0 25 0 google_breakpad::TypedMDRVA<MDString>::CopyIndexAfterObject(unsigned int, void const*, unsigned long)
FUNC 11610 25 0 google_breakpad::TypedMDRVA<MDString>::AllocateObjectAndArray(unsigned long, unsigned long)
FUNC 11640 1e 0 google_breakpad::MinidumpFileWriter::MinidumpFileWriter()
FUNC 11660 83 0 google_breakpad::MinidumpFileWriter::Open(char const*)
FUNC 116f0 30 0 google_breakpad::MinidumpFileWriter::SetFile(int)
FUNC 11720 6b 0 google_breakpad::MinidumpFileWriter::Close()
FUNC 11790 1e 0 google_breakpad::MinidumpFileWriter::~MinidumpFileWriter()
FUNC 117b0 c0 0 google_breakpad::MinidumpFileWriter::Allocate(unsigned long)
FUNC 11870 10a 0 google_breakpad::MinidumpFileWriter::Copy(unsigned int, void const*, long)
FUNC 11980 f2 0 google_breakpad::MinidumpFileWriter::CopyStringToMDString(wchar_t const*, unsigned int, google_breakpad::TypedMDRVA<MDString>*)
FUNC 11a80 ef 0 google_breakpad::MinidumpFileWriter::CopyStringToMDString(char const*, unsigned int, google_breakpad::TypedMDRVA<MDString>*)
FUNC 11b70 45 0 google_breakpad::UntypedMDRVA::Allocate(unsigned long)
FUNC 11bc0 8d 0 google_breakpad::UntypedMDRVA::Copy(unsigned int, void const*, unsigned long)
FUNC 11c50 e7 0 google_breakpad::MinidumpFileWriter::WriteMemory(void const*, unsigned long, MDMemoryDescriptor*)
FUNC 11d40 9 0 google_breakpad::MinidumpFileWriter::WriteString(wchar_t const*, unsigned int, MDLocationDescriptor*)
FUNC 11d50 9 0 google_breakpad::MinidumpFileWriter::WriteString(char const*, unsigned int, MDLocationDescriptor*)
FUNC 11d60 203 0 bool google_breakpad::MinidumpFileWriter::WriteStringCore<wchar_t>(wchar_t const*, unsigned int, MDLocationDescriptor*)
FUNC 11f70 203 0 bool google_breakpad::MinidumpFileWriter::WriteStringCore<char>(char const*, unsigned int, MDLocationDescriptor*)
FUNC 12180 a9 0 google_breakpad::UTF8ToUTF16Char(char const*, int, unsigned short*)
FUNC 12230 75 0 google_breakpad::UTF32ToUTF16Char(wchar_t, unsigned short*)
FUNC 12490 fc 0 google_breakpad::UTF32ToUTF16(wchar_t const*, std::vector<unsigned short, std::allocator<unsigned short> >*)
FUNC 12590 fc 0 google_breakpad::UTF8ToUTF16(char const*, std::vector<unsigned short, std::allocator<unsigned short> >*)
FUNC 12690 2e2 0 std::vector<unsigned short, std::allocator<unsigned short> >::_M_fill_insert(__gnu_cxx::__normal_iterator<unsigned short*, std::vector<unsigned short, std::allocator<unsigned short> > >, unsigned long, unsigned short const&)
FUNC 12980 1c6 0 std::vector<unsigned short, std::allocator<unsigned short> >::_M_default_append(unsigned long)
FUNC 12b50 23 0 google_breakpad::IsValidElf(void const*)
FUNC 12b80 9 0 google_breakpad::ElfClass(void const*)
FUNC 12b90 478 0 google_breakpad::FindElfSection(void const*, char const*, unsigned int, void const**, unsigned long*)
FUNC 13010 155 0 google_breakpad::ElfFileSoNameFromMappedFile(void const*, char*, unsigned long)
FUNC 13170 2ae 0 google_breakpad::FindElfSegments(void const*, unsigned int, google_breakpad::wasteful_vector<google_breakpad::ElfSegment>*)
FUNC 13420 2c4 0 void std::vector<google_breakpad::ElfSegment, google_breakpad::PageStdAllocator<google_breakpad::ElfSegment> >::_M_realloc_insert<google_breakpad::ElfSegment const&>(__gnu_cxx::__normal_iterator<google_breakpad::ElfSegment*, std::vector<google_breakpad::ElfSegment, google_breakpad::PageStdAllocator<google_breakpad::ElfSegment> > >, google_breakpad::ElfSegment const&)
FUNC 137e0 317 0 google_breakpad::elf::ElfClassBuildIDNoteIdentifier
FUNC 13b00 d3 0 google_breakpad::elf::FileID::FileID(char const*)
FUNC 13be0 95 0 google_breakpad::elf::FileID::ConvertIdentifierToUUIDString[abi:cxx11](google_breakpad::wasteful_vector<unsigned char> const&)
FUNC 13c80 4f 0 google_breakpad::elf::FileID::ConvertIdentifierToString[abi:cxx11](google_breakpad::wasteful_vector<unsigned char> const&)
FUNC 14030 25a 0 std::vector<unsigned char, google_breakpad::PageStdAllocator<unsigned char> >::_M_default_append(unsigned long)
FUNC 14290 ea 0 CreateGUID(MDGUID*)
FUNC 14380 70 0 GUIDToString(MDGUID const*, char*, int)
FUNC 143f0 25 0 GUIDGenerator::InitOnceImpl()
FUNC 14420 21 0 my_strlen
FUNC 14450 53 0 my_strcmp
FUNC 144b0 3e 0 my_strncmp
FUNC 144f0 54 0 my_strtoui
FUNC 14550 39 0 my_uint_len
FUNC 14590 4b 0 my_uitos
FUNC 145e0 32 0 my_strchr
FUNC 14620 27 0 my_strrchr
FUNC 14650 2b 0 my_memchr
FUNC 14680 6c 0 my_read_hex_ptr
FUNC 146f0 43 0 my_read_decimal_ptr
FUNC 14740 19 0 my_memset
FUNC 14760 37 0 my_strlcpy
FUNC 147a0 3f 0 my_strlcat
FUNC 147e0 6c 0 my_isspace
FUNC 14850 14 0 google_breakpad::MemoryMappedFile::MemoryMappedFile()
FUNC 14870 53 0 google_breakpad::MemoryMappedFile::Unmap()
FUNC 148d0 12 0 google_breakpad::MemoryMappedFile::~MemoryMappedFile()
FUNC 148f0 1cf 0 google_breakpad::MemoryMappedFile::Map(char const*, unsigned long)
FUNC 14ac0 18 0 google_breakpad::MemoryMappedFile::MemoryMappedFile(char const*, unsigned long)
FUNC 14ae0 40 0 google_breakpad::SafeReadLink(char const*, char*, unsigned long)
FUNC 14b20 5 0 CrashGenerationClientImpl::~CrashGenerationClientImpl
FUNC 14b30 e 0 CrashGenerationClientImpl::~CrashGenerationClientImpl
FUNC 14b40 202 0 CrashGenerationClientImpl::RequestDump
FUNC 14d50 2b 0 google_breakpad::CrashGenerationClient::TryCreate(int)
FUNC 14d80 c 0 google_breakpad::ThreadInfo::GetInstructionPointer() const
FUNC 14d90 341 0 google_breakpad::ThreadInfo::FillCPUContext(MDRawContextAMD64*) const
FUNC 150e0 49 0 google_breakpad::ThreadInfo::GetGeneralPurposeRegisters(void**, unsigned long*)
FUNC 15130 51 0 google_breakpad::ThreadInfo::GetFloatingPointRegisters(void**, unsigned long*)
FUNC 15190 c 0 google_breakpad::UContextReader::GetStackPointer(ucontext_t const*)
FUNC 151a0 c 0 google_breakpad::UContextReader::GetInstructionPointer(ucontext_t const*)
FUNC 151b0 2bf 0 google_breakpad::UContextReader::FillCPUContext(MDRawContextAMD64*, ucontext_t const*, _libc_fpstate const*)
FUNC 15470 e1 0 isLegalUTF8
FUNC 15560 112 0 google_breakpad::ConvertUTF32toUTF16(unsigned long const**, unsigned long const*, unsigned short**, unsigned short*, google_breakpad::ConversionFlags)
FUNC 15680 126 0 google_breakpad::ConvertUTF16toUTF32(unsigned short const**, unsigned short const*, unsigned long**, unsigned long*, google_breakpad::ConversionFlags)
FUNC 157b0 1b5 0 google_breakpad::ConvertUTF16toUTF8(unsigned short const**, unsigned short const*, unsigned char**, unsigned char*, google_breakpad::ConversionFlags)
FUNC 15970 33 0 google_breakpad::isLegalUTF8Sequence(unsigned char const*, unsigned char const*)
FUNC 15c20 1de 0 google_breakpad::ConvertUTF32toUTF8(unsigned long const**, unsigned long const*, unsigned char**, unsigned char*, google_breakpad::ConversionFlags)
PUBLIC 3000 0 _init
PUBLIC 3a20 0 google_breakpad::ExceptionHandler::GenerateDump(google_breakpad::ExceptionHandler::CrashContext*) [clone .cold]
PUBLIC 3a5a 0 google_breakpad::ExceptionHandler::WriteMinidumpForChild(int, int, std::__cxx11::basic_string<char, std::char_traits<char>, std::allocator<char> > const&, bool (*)(google_breakpad::MinidumpDescriptor const&, void*, bool), void*) [clone .cold]
PUBLIC 3a76 0 google_breakpad::ExceptionHandler::ExceptionHandler(google_breakpad::MinidumpDescriptor const&, bool (*)(void*), bool (*)(google_breakpad::MinidumpDescriptor const&, void*, bool), void*, bool, int) [clone .cold]
PUBLIC 3adc 0 google_breakpad::ExceptionHandler::WriteMinidump(std::__cxx11::basic_string<char, std::char_traits<char>, std::allocator<char> > const&, bool (*)(google_breakpad::MinidumpDescriptor const&, void*, bool), void*) [clone .cold]
PUBLIC 3b08 0 google_breakpad::MinidumpDescriptor::UpdatePath() [clone .cold]
PUBLIC 3b20 0 google_breakpad::WriteMicrodump(int, void const*, unsigned long, std::__cxx11::list<google_breakpad::MappingEntry, std::allocator<google_breakpad::MappingEntry> > const&, bool, unsigned long, bool, google_breakpad::MicrodumpExtraInfo const&) [clone .cold]
PUBLIC 3b50 0 google_breakpad::LinuxDumper::EnumerateMappings() [clone .cold]
PUBLIC 3b66 0 google_breakpad::(anonymous namespace)::ElfFileSoName(google_breakpad::LinuxDumper const&, google_breakpad::MappingInfo const&, char*, unsigned long) [clone .cold]
PUBLIC 3b76 0 google_breakpad::LinuxDumper::ElfFileIdentifierForMapping(google_breakpad::MappingInfo const&, bool, unsigned int, google_breakpad::wasteful_vector<unsigned char>&) [clone .cold]
PUBLIC 3b86 0 google_breakpad::LinuxDumper::LinuxDumper(int, char const*) [clone .cold]
PUBLIC 3bdc 0 google_breakpad::LinuxPtraceDumper::EnumerateThreads() [clone .cold]
PUBLIC 3bf6 0 google_breakpad::LinuxPtraceDumper::GetThreadInfoByIndex(unsigned long, google_breakpad::ThreadInfo*) [clone .cold]
PUBLIC 3c4e 0 (anonymous namespace)::MinidumpWriter::WriteFile(MDLocationDescriptor*, char const*) [clone .cold]
PUBLIC 3c8e 0 (anonymous namespace)::MinidumpWriter::FillRawModule(google_breakpad::MappingInfo const&, bool, unsigned int, MDRawModule*, unsigned char const*) [clone .cold]
PUBLIC 3cbc 0 (anonymous namespace)::MinidumpWriter::WriteThreadListStream(MDRawDirectory*) [clone .cold]
PUBLIC 3d26 0 (anonymous namespace)::MinidumpWriter::Dump() [clone .cold]
PUBLIC 3edc 0 google_breakpad::WriteMinidump(char const*, std::__cxx11::list<google_breakpad::MappingEntry, std::allocator<google_breakpad::MappingEntry> > const&, std::__cxx11::list<google_breakpad::AppMemory, std::allocator<google_breakpad::AppMemory> > const&, google_breakpad::LinuxDumper*) [clone .cold]
PUBLIC 3eec 0 (anonymous namespace)::WriteMinidumpImpl(char const*, int, long, int, void const*, unsigned long, std::__cxx11::list<google_breakpad::MappingEntry, std::allocator<google_breakpad::MappingEntry> > const&, std::__cxx11::list<google_breakpad::AppMemory, std::allocator<google_breakpad::AppMemory> > const&, bool, unsigned long, bool) [clone .cold]
PUBLIC 3f1a 0 google_breakpad::WriteMinidump(char const*, int, void const*, unsigned long, bool, unsigned long, bool) [clone .cold]
PUBLIC 3f32 0 google_breakpad::WriteMinidump(int, int, void const*, unsigned long, bool, unsigned long, bool) [clone .cold]
PUBLIC 3f4a 0 google_breakpad::WriteMinidump(char const*, int, int) [clone .cold]
PUBLIC 3f85 0 google_breakpad::UTF16ToUTF8[abi:cxx11](std::vector<unsigned short, std::allocator<unsigned short> > const&, bool) [clone .cold]
PUBLIC 3fa8 0 google_breakpad::elf::bytes_to_hex_string(unsigned char const*, unsigned long) [clone .cold]
PUBLIC 3fb8 0 google_breakpad::elf::FileID::ElfFileIdentifierFromMappedFile(void const*, google_breakpad::wasteful_vector<unsigned char>&) [clone .cold]
PUBLIC 3ffc 0 google_breakpad::elf::FileID::ElfFileIdentifier(google_breakpad::wasteful_vector<unsigned char>&) [clone .cold]
PUBLIC 400c 0 google_breakpad::ConvertUTF8toUTF16(unsigned char const**, unsigned char const*, unsigned short**, unsigned short*, google_breakpad::ConversionFlags) [clone .cold]
PUBLIC 4013 0 google_breakpad::ConvertUTF8toUTF32(unsigned char const**, unsigned char const*, unsigned long**, unsigned long*, google_breakpad::ConversionFlags) [clone .cold]
PUBLIC 4020 0 _start
PUBLIC 4050 0 deregister_tm_clones
PUBLIC 4080 0 register_tm_clones
PUBLIC 40c0 0 __do_global_dtors_aux
PUBLIC 4100 0 frame_dummy
PUBLIC 5b70 0 google_breakpad::ExceptionHandler::GenerateDump(google_breakpad::ExceptionHandler::CrashContext*)
PUBLIC 6a40 0 google_breakpad::ExceptionHandler::WriteMinidumpForChild(int, int, std::__cxx11::basic_string<char, std::char_traits<char>, std::allocator<char> > const&, bool (*)(google_breakpad::MinidumpDescriptor const&, void*, bool), void*)
PUBLIC 6cb0 0 google_breakpad::ExceptionHandler::ExceptionHandler(google_breakpad::MinidumpDescriptor const&, bool (*)(void*), bool (*)(google_breakpad::MinidumpDescriptor const&, void*, bool), void*, bool, int)
PUBLIC 6fc0 0 google_breakpad::ExceptionHandler::WriteMinidump(std::__cxx11::basic_string<char, std::char_traits<char>, std::allocator<char> > const&, bool (*)(google_breakpad::MinidumpDescriptor const&, void*, bool), void*)
PUBLIC 7520 0 google_breakpad::MinidumpDescriptor::UpdatePath()
PUBLIC 7f10 0 google_breakpad::WriteMicrodump(int, void const*, unsigned long, std::__cxx11::list<google_breakpad::MappingEntry, std::allocator<google_breakpad::MappingEntry> > const&, bool, unsigned long, bool, google_breakpad::MicrodumpExtraInfo const&)
PUBLIC 8f00 0 google_breakpad::LinuxDumper::EnumerateMappings()
PUBLIC 9c00 0 google_breakpad::(anonymous namespace)::ElfFileSoName(google_breakpad::LinuxDumper const&, google_breakpad::MappingInfo const&, char*, unsigned long)
PUBLIC a540 0 google_breakpad::LinuxDumper::ElfFileIdentifierForMapping(google_breakpad::MappingInfo const&, bool, unsigned int, google_breakpad::wasteful_vector<unsigned char>&)
PUBLIC a8a0 0 google_breakpad::LinuxDumper::LinuxDumper(int, char const*)
PUBLIC b4a0 0 google_breakpad::LinuxPtraceDumper::EnumerateThreads()
PUBLIC bce0 0 google_breakpad::LinuxPtraceDumper::GetThreadInfoByIndex(unsigned long, google_breakpad::ThreadInfo*)
PUBLIC c7d0 0 (anonymous namespace)::MinidumpWriter::WriteFile(MDLocationDescriptor*, char const*)
PUBLIC cc10 0 (anonymous namespace)::MinidumpWriter::FillRawModule(google_breakpad::MappingInfo const&, bool, unsigned int, MDRawModule*, unsigned char const*)
PUBLIC d2c0 0 (anonymous namespace)::MinidumpWriter::WriteThreadListStream(MDRawDirectory*)
PUBLIC e0d0 0 (anonymous namespace)::MinidumpWriter::Dump()
PUBLIC fdc0 0 google_breakpad::WriteMinidump(char const*, std::__cxx11::list<google_breakpad::MappingEntry, std::allocator<google_breakpad::MappingEntry> > const&, std::__cxx11::list<google_breakpad::AppMemory, std::allocator<google_breakpad::AppMemory> > const&, google_breakpad::LinuxDumper*)
PUBLIC 100e0 0 (anonymous namespace)::WriteMinidumpImpl(char const*, int, long, int, void const*, unsigned long, std::__cxx11::list<google_breakpad::MappingEntry, std::allocator<google_breakpad::MappingEntry> > const&, std::__cxx11::list<google_breakpad::AppMemory, std::allocator<google_breakpad::AppMemory> > const&, bool, unsigned long, bool)
PUBLIC 10600 0 google_breakpad::WriteMinidump(char const*, int, void const*, unsigned long, bool, unsigned long, bool)
PUBLIC 10700 0 google_breakpad::WriteMinidump(int, int, void const*, unsigned long, bool, unsigned long, bool)
PUBLIC 10800 0 google_breakpad::WriteMinidump(char const*, int, int)
PUBLIC 122b0 0 google_breakpad::UTF16ToUTF8[abi:cxx11](std::vector<unsigned short, std::allocator<unsigned short> > const&, bool)
PUBLIC 136f0 0 google_breakpad::elf::bytes_to_hex_string(unsigned char const*, unsigned long)
PUBLIC 13cd0 0 google_breakpad::elf::FileID::ElfFileIdentifierFromMappedFile(void const*, google_breakpad::wasteful_vector<unsigned char>&)
PUBLIC 13fa0 0 google_breakpad::elf::FileID::ElfFileIdentifier(google_breakpad::wasteful_vector<unsigned char>&)
PUBLIC 159b0 0 google_breakpad::ConvertUTF8toUTF16(unsigned char const**, unsigned char const*, unsigned short**, unsigned short*, google_breakpad::ConversionFlags)
PUBLIC 15e00 0 google_breakpad::ConvertUTF8toUTF32(unsigned char const**, unsigned char const*, unsigned long**, unsigned long*, google_breakpad::ConversionFlags)
PUBLIC 16070 0 _fini
STACK CFI INIT 4020 26 .cfa: $rsp 8 + .ra: .cfa -8 + ^
STACK CFI INIT 3020 500 .cfa: $rsp 16 + .ra: .cfa -8 + ^
STACK CFI 3026 .cfa: $rsp 24 +
STACK CFI INIT 3520 10 .cfa: $rsp 8 + .ra: .cfa -8 + ^
STACK CFI INIT 3530 4f0 .cfa: $rsp 8 + .ra: .cfa -8 + ^
STACK CFI INIT 44bb 3e .cfa: $rsp 8 + .ra: .cfa -8 + ^
STACK CFI 44c0 $rbp: .cfa -16 + ^ .cfa: $rsp 16 +
STACK CFI 44c3 .cfa: $rbp 16 +
STACK CFI 44f8 .cfa: $rsp 8 +
STACK CFI INIT 44fa 1a .cfa: $rsp 8 + .ra: .cfa -8 + ^
STACK CFI 44ff $rbp: .cfa -16 + ^ .cfa: $rsp 16 +
STACK CFI 4502 .cfa: $rbp 16 +
STACK CFI 4513 .cfa: $rsp 8 +
STACK CFI INIT 4514 28 .cfa: $rsp 8 + .ra: .cfa -8 + ^
STACK CFI 4519 $rbp: .cfa -16 + ^ .cfa: $rsp 16 +
STACK CFI 451c .cfa: $rbp 16 +
STACK CFI 453b .cfa: $rsp 8 +
STACK CFI INIT 453c 57 .cfa: $rsp 8 + .ra: .cfa -8 + ^
STACK CFI 4541 $rbp: .cfa -16 + ^ .cfa: $rsp 16 +
STACK CFI 4544 .cfa: $rbp 16 +
STACK CFI 4592 .cfa: $rsp 8 +
STACK CFI INIT 4593 20 .cfa: $rsp 8 + .ra: .cfa -8 + ^
STACK CFI 4598 $rbp: .cfa -16 + ^ .cfa: $rsp 16 +
STACK CFI 459b .cfa: $rbp 16 +
STACK CFI 45b2 .cfa: $rsp 8 +
STACK CFI INIT 45b4 15 .cfa: $rsp 8 + .ra: .cfa -8 + ^
STACK CFI 45b9 $rbp: .cfa -16 + ^ .cfa: $rsp 16 +
STACK CFI 45bc .cfa: $rbp 16 +
STACK CFI 45c8 .cfa: $rsp 8 +
STACK CFI INIT 45ca 21 .cfa: $rsp 8 + .ra: .cfa -8 + ^
STACK CFI 45cf $rbp: .cfa -16 + ^ .cfa: $rsp 16 +
STACK CFI 45d2 .cfa: $rbp 16 +
STACK CFI 45ea .cfa: $rsp 8 +
STACK CFI INIT 45eb f .cfa: $rsp 8 + .ra: .cfa -8 + ^
STACK CFI 45f0 $rbp: .cfa -16 + ^ .cfa: $rsp 16 +
STACK CFI 45f3 .cfa: $rbp 16 +
STACK CFI 45f9 .cfa: $rsp 8 +
STACK CFI INIT 45fa 21 .cfa: $rsp 8 + .ra: .cfa -8 + ^
STACK CFI 45ff $rbp: .cfa -16 + ^ .cfa: $rsp 16 +
STACK CFI 4602 .cfa: $rbp 16 +
STACK CFI 461a .cfa: $rsp 8 +
STACK CFI INIT 461c 3e .cfa: $rsp 8 + .ra: .cfa -8 + ^
STACK CFI 4621 $rbp: .cfa -16 + ^ .cfa: $rsp 16 +
STACK CFI 4624 .cfa: $rbp 16 +
STACK CFI 4659 .cfa: $rsp 8 +
STACK CFI INIT 465a d2 .cfa: $rsp 8 + .ra: .cfa -8 + ^
STACK CFI 465f $rbp: .cfa -16 + ^ .cfa: $rsp 16 +
STACK CFI 4662 .cfa: $rbp 16 +
STACK CFI 472b .cfa: $rsp 8 +
STACK CFI INIT 472c 16 .cfa: $rsp 8 + .ra: .cfa -8 + ^
STACK CFI 4731 $rbp: .cfa -16 + ^ .cfa: $rsp 16 +
STACK CFI 4734 .cfa: $rbp 16 +
STACK CFI 4741 .cfa: $rsp 8 +
STACK CFI INIT 4109 58 .cfa: $rsp 8 + .ra: .cfa -8 + ^
STACK CFI 410e $rbp: .cfa -16 + ^ .cfa: $rsp 16 +
STACK CFI 4111 .cfa: $rbp 16 +
STACK CFI 4160 .cfa: $rsp 8 +
STACK CFI INIT 4161 6a .cfa: $rsp 8 + .ra: .cfa -8 + ^
STACK CFI 4166 $rbp: .cfa -16 + ^ .cfa: $rsp 16 +
STACK CFI 4169 .cfa: $rbp 16 +
STACK CFI 41ca .cfa: $rsp 8 +
STACK CFI INIT 41cb 69 .cfa: $rsp 8 + .ra: .cfa -8 + ^
STACK CFI 41d0 $rbp: .cfa -16 + ^ .cfa: $rsp 16 +
STACK CFI 41d3 .cfa: $rbp 16 +
STACK CFI 41d8 $rbx: .cfa -24 + ^
STACK CFI 4233 .cfa: $rsp 8 +
STACK CFI INIT 4742 33 .cfa: $rsp 8 + .ra: .cfa -8 + ^
STACK CFI 4747 $rbp: .cfa -16 + ^ .cfa: $rsp 16 +
STACK CFI 474a .cfa: $rbp 16 +
STACK CFI 4774 .cfa: $rsp 8 +
STACK CFI INIT 4234 218 .cfa: $rsp 8 + .ra: .cfa -8 + ^
STACK CFI 4239 $rbp: .cfa -16 + ^ .cfa: $rsp 16 +
STACK CFI 423c .cfa: $rbp 16 +
STACK CFI 4244 $rbx: .cfa -24 + ^
STACK CFI 444b .cfa: $rsp 8 +
STACK CFI INIT 4775 25 .cfa: $rsp 8 + .ra: .cfa -8 + ^
STACK CFI 477a $rbp: .cfa -16 + ^ .cfa: $rsp 16 +
STACK CFI 477d .cfa: $rbp 16 +
STACK CFI 4799 .cfa: $rsp 8 +
STACK CFI INIT 479a 6d .cfa: $rsp 8 + .ra: .cfa -8 + ^
STACK CFI 479f $rbp: .cfa -16 + ^ .cfa: $rsp 16 +
STACK CFI 47a2 .cfa: $rbp 16 +
STACK CFI 4806 .cfa: $rsp 8 +
STACK CFI INIT 4808 1f .cfa: $rsp 8 + .ra: .cfa -8 + ^
STACK CFI 480d $rbp: .cfa -16 + ^ .cfa: $rsp 16 +
STACK CFI 4810 .cfa: $rbp 16 +
STACK CFI 4826 .cfa: $rsp 8 +
STACK CFI INIT 4828 15 .cfa: $rsp 8 + .ra: .cfa -8 + ^
STACK CFI 482d $rbp: .cfa -16 + ^ .cfa: $rsp 16 +
STACK CFI 4830 .cfa: $rbp 16 +
STACK CFI 483c .cfa: $rsp 8 +
STACK CFI INIT 483e 23 .cfa: $rsp 8 + .ra: .cfa -8 + ^
STACK CFI 4843 $rbp: .cfa -16 + ^ .cfa: $rsp 16 +
STACK CFI 4846 .cfa: $rbp 16 +
STACK CFI 4860 .cfa: $rsp 8 +
STACK CFI INIT 4861 2c .cfa: $rsp 8 + .ra: .cfa -8 + ^
STACK CFI 4866 $rbp: .cfa -16 + ^ .cfa: $rsp 16 +
STACK CFI 4869 .cfa: $rbp 16 +
STACK CFI 488c .cfa: $rsp 8 +
STACK CFI INIT 488d 51 .cfa: $rsp 8 + .ra: .cfa -8 + ^
STACK CFI 4892 $rbp: .cfa -16 + ^ .cfa: $rsp 16 +
STACK CFI 4895 .cfa: $rbp 16 +
STACK CFI 48dd .cfa: $rsp 8 +
STACK CFI INIT 48de 1e .cfa: $rsp 8 + .ra: .cfa -8 + ^
STACK CFI 48e3 $rbp: .cfa -16 + ^ .cfa: $rsp 16 +
STACK CFI 48e6 .cfa: $rbp 16 +
STACK CFI 48fb .cfa: $rsp 8 +
STACK CFI INIT 48fc 1e .cfa: $rsp 8 + .ra: .cfa -8 + ^
STACK CFI 4901 $rbp: .cfa -16 + ^ .cfa: $rsp 16 +
STACK CFI 4904 .cfa: $rbp 16 +
STACK CFI 4919 .cfa: $rsp 8 +
STACK CFI INIT 491a 93 .cfa: $rsp 8 + .ra: .cfa -8 + ^
STACK CFI 491f $rbp: .cfa -16 + ^ .cfa: $rsp 16 +
STACK CFI 4922 .cfa: $rbp 16 +
STACK CFI 4927 $rbx: .cfa -24 + ^
STACK CFI 49ac .cfa: $rsp 8 +
STACK CFI INIT 49ad e8 .cfa: $rsp 8 + .ra: .cfa -8 + ^
STACK CFI 49b2 $rbp: .cfa -16 + ^ .cfa: $rsp 16 +
STACK CFI 49b5 .cfa: $rbp 16 +
STACK CFI 4a94 .cfa: $rsp 8 +
STACK CFI INIT 4a96 c3 .cfa: $rsp 8 + .ra: .cfa -8 + ^
STACK CFI 4a9b $rbp: .cfa -16 + ^ .cfa: $rsp 16 +
STACK CFI 4a9e .cfa: $rbp 16 +
STACK CFI 4aa3 $rbx: .cfa -24 + ^
STACK CFI 4b58 .cfa: $rsp 8 +
STACK CFI INIT 4b5a ef .cfa: $rsp 8 + .ra: .cfa -8 + ^
STACK CFI 4b5f $rbp: .cfa -16 + ^ .cfa: $rsp 16 +
STACK CFI 4b62 .cfa: $rbp 16 +
STACK CFI 4b67 $rbx: .cfa -24 + ^
STACK CFI 4c48 .cfa: $rsp 8 +
STACK CFI INIT 4c49 75 .cfa: $rsp 8 + .ra: .cfa -8 + ^
STACK CFI 4c4e $rbp: .cfa -16 + ^ .cfa: $rsp 16 +
STACK CFI 4c51 .cfa: $rbp 16 +
STACK CFI 4c56 $rbx: .cfa -24 + ^
STACK CFI 4cbd .cfa: $rsp 8 +
STACK CFI INIT 4cbe 5c .cfa: $rsp 8 + .ra: .cfa -8 + ^
STACK CFI 4cc3 $rbp: .cfa -16 + ^ .cfa: $rsp 16 +
STACK CFI 4cc6 .cfa: $rbp 16 +
STACK CFI 4d19 .cfa: $rsp 8 +
STACK CFI INIT 4d1a 63 .cfa: $rsp 8 + .ra: .cfa -8 + ^
STACK CFI 4d1f $rbp: .cfa -16 + ^ .cfa: $rsp 16 +
STACK CFI 4d22 .cfa: $rbp 16 +
STACK CFI 4d7c .cfa: $rsp 8 +
STACK CFI INIT 4d7d 35 .cfa: $rsp 8 + .ra: .cfa -8 + ^
STACK CFI 4d82 $rbp: .cfa -16 + ^ .cfa: $rsp 16 +
STACK CFI 4d85 .cfa: $rbp 16 +
STACK CFI 4db1 .cfa: $rsp 8 +
STACK CFI INIT 4db2 145 .cfa: $rsp 8 + .ra: .cfa -8 + ^
STACK CFI 4db7 $rbp: .cfa -16 + ^ .cfa: $rsp 16 +
STACK CFI 4dba .cfa: $rbp 16 +
STACK CFI 4dbf $rbx: .cfa -24 + ^
STACK CFI 4ef6 .cfa: $rsp 8 +
STACK CFI INIT 4ef7 12 .cfa: $rsp 8 + .ra: .cfa -8 + ^
STACK CFI 4efc $rbp: .cfa -16 + ^ .cfa: $rsp 16 +
STACK CFI 4eff .cfa: $rbp 16 +
STACK CFI 4f08 .cfa: $rsp 8 +
STACK CFI INIT 4f0a 1d .cfa: $rsp 8 + .ra: .cfa -8 + ^
STACK CFI 4f0f $rbp: .cfa -16 + ^ .cfa: $rsp 16 +
STACK CFI 4f12 .cfa: $rbp 16 +
STACK CFI 4f26 .cfa: $rsp 8 +
STACK CFI INIT 4f28 74 .cfa: $rsp 8 + .ra: .cfa -8 + ^
STACK CFI 4f2d $rbp: .cfa -16 + ^ .cfa: $rsp 16 +
STACK CFI 4f30 .cfa: $rbp 16 +
STACK CFI 4f35 $rbx: .cfa -24 + ^
STACK CFI 4f9b .cfa: $rsp 8 +
STACK CFI INIT 4f9c 2a .cfa: $rsp 8 + .ra: .cfa -8 + ^
STACK CFI 4fa1 $rbp: .cfa -16 + ^ .cfa: $rsp 16 +
STACK CFI 4fa4 .cfa: $rbp 16 +
STACK CFI 4fc5 .cfa: $rsp 8 +
STACK CFI INIT 4fc6 2a .cfa: $rsp 8 + .ra: .cfa -8 + ^
STACK CFI 4fcb $rbp: .cfa -16 + ^ .cfa: $rsp 16 +
STACK CFI 4fce .cfa: $rbp 16 +
STACK CFI 4fef .cfa: $rsp 8 +
STACK CFI INIT 4ff0 68 .cfa: $rsp 8 + .ra: .cfa -8 + ^
STACK CFI 4ff5 $rbp: .cfa -16 + ^ .cfa: $rsp 16 +
STACK CFI 4ff8 .cfa: $rbp 16 +
STACK CFI 4ffd $rbx: .cfa -24 + ^
STACK CFI 5057 .cfa: $rsp 8 +
STACK CFI INIT 5058 16 .cfa: $rsp 8 + .ra: .cfa -8 + ^
STACK CFI 505d $rbp: .cfa -16 + ^ .cfa: $rsp 16 +
STACK CFI 5060 .cfa: $rbp 16 +
STACK CFI 506d .cfa: $rsp 8 +
STACK CFI INIT 506e e .cfa: $rsp 8 + .ra: .cfa -8 + ^
STACK CFI 5073 $rbp: .cfa -16 + ^ .cfa: $rsp 16 +
STACK CFI 5076 .cfa: $rbp 16 +
STACK CFI 507b .cfa: $rsp 8 +
STACK CFI INIT 507c 1a .cfa: $rsp 8 + .ra: .cfa -8 + ^
STACK CFI 5081 $rbp: .cfa -16 + ^ .cfa: $rsp 16 +
STACK CFI 5084 .cfa: $rbp 16 +
STACK CFI 5095 .cfa: $rsp 8 +
STACK CFI INIT 5096 62 .cfa: $rsp 8 + .ra: .cfa -8 + ^
STACK CFI 509b $rbp: .cfa -16 + ^ .cfa: $rsp 16 +
STACK CFI 509e .cfa: $rbp 16 +
STACK CFI 50a3 $rbx: .cfa -24 + ^
STACK CFI 50f7 .cfa: $rsp 8 +
STACK CFI INIT 50f8 3b .cfa: $rsp 8 + .ra: .cfa -8 + ^
STACK CFI 50fd $rbp: .cfa -16 + ^ .cfa: $rsp 16 +
STACK CFI 5100 .cfa: $rbp 16 +
STACK CFI 5105 $rbx: .cfa -24 + ^
STACK CFI 5132 .cfa: $rsp 8 +
STACK CFI INIT 5134 1e .cfa: $rsp 8 + .ra: .cfa -8 + ^
STACK CFI 5139 $rbp: .cfa -16 + ^ .cfa: $rsp 16 +
STACK CFI 513c .cfa: $rbp 16 +
STACK CFI 5151 .cfa: $rsp 8 +
STACK CFI INIT 5152 1e .cfa: $rsp 8 + .ra: .cfa -8 + ^
STACK CFI 5157 $rbp: .cfa -16 + ^ .cfa: $rsp 16 +
STACK CFI 515a .cfa: $rbp 16 +
STACK CFI 516f .cfa: $rsp 8 +
STACK CFI INIT 5170 12 .cfa: $rsp 8 + .ra: .cfa -8 + ^
STACK CFI 5175 $rbp: .cfa -16 + ^ .cfa: $rsp 16 +
STACK CFI 5178 .cfa: $rbp 16 +
STACK CFI 5181 .cfa: $rsp 8 +
STACK CFI INIT 5182 2f .cfa: $rsp 8 + .ra: .cfa -8 + ^
STACK CFI 5187 $rbp: .cfa -16 + ^ .cfa: $rsp 16 +
STACK CFI 518a .cfa: $rbp 16 +
STACK CFI 51b0 .cfa: $rsp 8 +
STACK CFI INIT 51b2 2a .cfa: $rsp 8 + .ra: .cfa -8 + ^
STACK CFI 51b7 $rbp: .cfa -16 + ^ .cfa: $rsp 16 +
STACK CFI 51ba .cfa: $rbp 16 +
STACK CFI 51db .cfa: $rsp 8 +
STACK CFI INIT 51dc 1f .cfa: $rsp 8 + .ra: .cfa -8 + ^
STACK CFI 51e1 $rbp: .cfa -16 + ^ .cfa: $rsp 16 +
STACK CFI 51e4 .cfa: $rbp 16 +
STACK CFI 51fa .cfa: $rsp 8 +
STACK CFI INIT 51fb 1e .cfa: $rsp 8 + .ra: .cfa -8 + ^
STACK CFI 5200 $rbp: .cfa -16 + ^ .cfa: $rsp 16 +
STACK CFI 5203 .cfa: $rbp 16 +
STACK CFI 5218 .cfa: $rsp 8 +
STACK CFI INIT 521a 1e .cfa: $rsp 8 + .ra: .cfa -8 + ^
STACK CFI 521f $rbp: .cfa -16 + ^ .cfa: $rsp 16 +
STACK CFI 5222 .cfa: $rbp 16 +
STACK CFI 5237 .cfa: $rsp 8 +
STACK CFI INIT 5238 2a .cfa: $rsp 8 + .ra: .cfa -8 + ^
STACK CFI 523d $rbp: .cfa -16 + ^ .cfa: $rsp 16 +
STACK CFI 5240 .cfa: $rbp 16 +
STACK CFI 5261 .cfa: $rsp 8 +
STACK CFI INIT 5262 2b .cfa: $rsp 8 + .ra: .cfa -8 + ^
STACK CFI 5267 $rbp: .cfa -16 + ^ .cfa: $rsp 16 +
STACK CFI 526a .cfa: $rbp 16 +
STACK CFI 528c .cfa: $rsp 8 +
STACK CFI INIT 528d 1e .cfa: $rsp 8 + .ra: .cfa -8 + ^
STACK CFI 5292 $rbp: .cfa -16 + ^ .cfa: $rsp 16 +
STACK CFI 5295 .cfa: $rbp 16 +
STACK CFI 52aa .cfa: $rsp 8 +
STACK CFI INIT 52ab 1e .cfa: $rsp 8 + .ra: .cfa -8 + ^
STACK CFI 52b0 $rbp: .cfa -16 + ^ .cfa: $rsp 16 +
STACK CFI 52b3 .cfa: $rbp 16 +
STACK CFI 52c8 .cfa: $rsp 8 +
STACK CFI INIT 52ca 21 .cfa: $rsp 8 + .ra: .cfa -8 + ^
STACK CFI 52cf $rbp: .cfa -16 + ^ .cfa: $rsp 16 +
STACK CFI 52d2 .cfa: $rbp 16 +
STACK CFI 52ea .cfa: $rsp 8 +
STACK CFI INIT 52ec 1f .cfa: $rsp 8 + .ra: .cfa -8 + ^
STACK CFI 52f1 $rbp: .cfa -16 + ^ .cfa: $rsp 16 +
STACK CFI 52f4 .cfa: $rbp 16 +
STACK CFI 530a .cfa: $rsp 8 +
STACK CFI INIT 530c 1a .cfa: $rsp 8 + .ra: .cfa -8 + ^
STACK CFI 5311 $rbp: .cfa -16 + ^ .cfa: $rsp 16 +
STACK CFI 5314 .cfa: $rbp 16 +
STACK CFI 5325 .cfa: $rsp 8 +
STACK CFI INIT 5326 1e .cfa: $rsp 8 + .ra: .cfa -8 + ^
STACK CFI 532b $rbp: .cfa -16 + ^ .cfa: $rsp 16 +
STACK CFI 532e .cfa: $rbp 16 +
STACK CFI 5343 .cfa: $rsp 8 +
STACK CFI INIT 5344 1e .cfa: $rsp 8 + .ra: .cfa -8 + ^
STACK CFI 5349 $rbp: .cfa -16 + ^ .cfa: $rsp 16 +
STACK CFI 534c .cfa: $rbp 16 +
STACK CFI 5361 .cfa: $rsp 8 +
STACK CFI INIT 5362 f .cfa: $rsp 8 + .ra: .cfa -8 + ^
STACK CFI 5367 $rbp: .cfa -16 + ^ .cfa: $rsp 16 +
STACK CFI 536a .cfa: $rbp 16 +
STACK CFI 5370 .cfa: $rsp 8 +
STACK CFI INIT 5371 12 .cfa: $rsp 8 + .ra: .cfa -8 + ^
STACK CFI 5376 $rbp: .cfa -16 + ^ .cfa: $rsp 16 +
STACK CFI 5379 .cfa: $rbp 16 +
STACK CFI 5382 .cfa: $rsp 8 +
STACK CFI INIT 5383 1e .cfa: $rsp 8 + .ra: .cfa -8 + ^
STACK CFI 5388 $rbp: .cfa -16 + ^ .cfa: $rsp 16 +
STACK CFI 538b .cfa: $rbp 16 +
STACK CFI 53a0 .cfa: $rsp 8 +
STACK CFI INIT 53a1 12 .cfa: $rsp 8 + .ra: .cfa -8 + ^
STACK CFI 53a6 $rbp: .cfa -16 + ^ .cfa: $rsp 16 +
STACK CFI 53a9 .cfa: $rbp 16 +
STACK CFI 53b2 .cfa: $rsp 8 +
STACK CFI INIT 53b4 2d .cfa: $rsp 8 + .ra: .cfa -8 + ^
STACK CFI 53b9 $rbp: .cfa -16 + ^ .cfa: $rsp 16 +
STACK CFI 53bc .cfa: $rbp 16 +
STACK CFI 53e0 .cfa: $rsp 8 +
STACK CFI INIT 53e2 2f .cfa: $rsp 8 + .ra: .cfa -8 + ^
STACK CFI 53e7 $rbp: .cfa -16 + ^ .cfa: $rsp 16 +
STACK CFI 53ea .cfa: $rbp 16 +
STACK CFI 5410 .cfa: $rsp 8 +
STACK CFI INIT 444c 56 .cfa: $rsp 8 + .ra: .cfa -8 + ^
STACK CFI 4451 $rbp: .cfa -16 + ^ .cfa: $rsp 16 +
STACK CFI 4454 .cfa: $rbp 16 +
STACK CFI 44a1 .cfa: $rsp 8 +
STACK CFI INIT 5412 23 .cfa: $rsp 8 + .ra: .cfa -8 + ^
STACK CFI 5417 $rbp: .cfa -16 + ^ .cfa: $rsp 16 +
STACK CFI 541a .cfa: $rbp 16 +
STACK CFI 5434 .cfa: $rsp 8 +
STACK CFI INIT 5436 1f .cfa: $rsp 8 + .ra: .cfa -8 + ^
STACK CFI 543b $rbp: .cfa -16 + ^ .cfa: $rsp 16 +
STACK CFI 543e .cfa: $rbp 16 +
STACK CFI 5454 .cfa: $rsp 8 +
STACK CFI INIT 5456 2f .cfa: $rsp 8 + .ra: .cfa -8 + ^
STACK CFI 545b $rbp: .cfa -16 + ^ .cfa: $rsp 16 +
STACK CFI 545e .cfa: $rbp 16 +
STACK CFI 5484 .cfa: $rsp 8 +
STACK CFI INIT 5485 12 .cfa: $rsp 8 + .ra: .cfa -8 + ^
STACK CFI 548a $rbp: .cfa -16 + ^ .cfa: $rsp 16 +
STACK CFI 548d .cfa: $rbp 16 +
STACK CFI 5496 .cfa: $rsp 8 +
STACK CFI INIT 5497 26 .cfa: $rsp 8 + .ra: .cfa -8 + ^
STACK CFI 549c $rbp: .cfa -16 + ^ .cfa: $rsp 16 +
STACK CFI 549f .cfa: $rbp 16 +
STACK CFI 54bc .cfa: $rsp 8 +
STACK CFI INIT 54bd 27 .cfa: $rsp 8 + .ra: .cfa -8 + ^
STACK CFI 54c2 $rbp: .cfa -16 + ^ .cfa: $rsp 16 +
STACK CFI 54c5 .cfa: $rbp 16 +
STACK CFI 54e3 .cfa: $rsp 8 +
STACK CFI INIT 54e4 1e .cfa: $rsp 8 + .ra: .cfa -8 + ^
STACK CFI 54e9 $rbp: .cfa -16 + ^ .cfa: $rsp 16 +
STACK CFI 54ec .cfa: $rbp 16 +
STACK CFI 5501 .cfa: $rsp 8 +
STACK CFI INIT 5502 12 .cfa: $rsp 8 + .ra: .cfa -8 + ^
STACK CFI 5507 $rbp: .cfa -16 + ^ .cfa: $rsp 16 +
STACK CFI 550a .cfa: $rbp 16 +
STACK CFI 5513 .cfa: $rsp 8 +
STACK CFI INIT 5514 24 .cfa: $rsp 8 + .ra: .cfa -8 + ^
STACK CFI 5519 $rbp: .cfa -16 + ^ .cfa: $rsp 16 +
STACK CFI 551c .cfa: $rbp 16 +
STACK CFI 5537 .cfa: $rsp 8 +
STACK CFI INIT 5538 1e .cfa: $rsp 8 + .ra: .cfa -8 + ^
STACK CFI 553d $rbp: .cfa -16 + ^ .cfa: $rsp 16 +
STACK CFI 5540 .cfa: $rbp 16 +
STACK CFI 5555 .cfa: $rsp 8 +
STACK CFI INIT 5556 12 .cfa: $rsp 8 + .ra: .cfa -8 + ^
STACK CFI 555b $rbp: .cfa -16 + ^ .cfa: $rsp 16 +
STACK CFI 555e .cfa: $rbp 16 +
STACK CFI 5567 .cfa: $rsp 8 +
STACK CFI INIT 44a2 19 .cfa: $rsp 8 + .ra: .cfa -8 + ^
STACK CFI 44a7 $rbp: .cfa -16 + ^ .cfa: $rsp 16 +
STACK CFI 44aa .cfa: $rbp 16 +
STACK CFI 44ba .cfa: $rsp 8 +
STACK CFI INIT 5570 143 .cfa: $rsp 8 + .ra: .cfa -8 + ^
STACK CFI 5576 $r14: .cfa -16 + ^ .cfa: $rsp 16 +
STACK CFI 5578 $r13: .cfa -24 + ^ .cfa: $rsp 24 +
STACK CFI 557a $r12: .cfa -32 + ^ .cfa: $rsp 32 +
STACK CFI 557b $rbp: .cfa -40 + ^ .cfa: $rsp 40 +
STACK CFI 557c $rbx: .cfa -48 + ^ .cfa: $rsp 48 +
STACK CFI 5583 .cfa: $rsp 208 +
STACK CFI 560e .cfa: $rsp 48 +
STACK CFI 560f .cfa: $rsp 40 +
STACK CFI 5610 .cfa: $rsp 32 +
STACK CFI 5612 .cfa: $rsp 24 +
STACK CFI 5614 .cfa: $rsp 16 +
STACK CFI 5616 .cfa: $rsp 8 +
STACK CFI 5620 .cfa: $rsp 208 +
STACK CFI INIT 56c0 99 .cfa: $rsp 8 + .ra: .cfa -8 + ^
STACK CFI 56d3 $r13: .cfa -16 + ^ .cfa: $rsp 16 +
STACK CFI 56d5 $r12: .cfa -24 + ^ .cfa: $rsp 24 +
STACK CFI 56dc $rbp: .cfa -32 + ^ .cfa: $rsp 32 +
STACK CFI 56e4 $rbx: .cfa -40 + ^ .cfa: $rsp 40 +
STACK CFI 56f6 .cfa: $rsp 48 +
STACK CFI 574b .cfa: $rsp 40 +
STACK CFI 574c .cfa: $rsp 32 +
STACK CFI 574d .cfa: $rsp 24 +
STACK CFI 574f .cfa: $rsp 16 +
STACK CFI 5751 .cfa: $rsp 8 +
STACK CFI 5758 $r12: $r12 $r13: $r13 $rbp: $rbp $rbx: $rbx
STACK CFI INIT 5760 327 .cfa: $rsp 8 + .ra: .cfa -8 + ^
STACK CFI 5766 $r12: .cfa -16 + ^ .cfa: $rsp 16 +
STACK CFI 5767 $rbp: .cfa -24 + ^ .cfa: $rsp 24 +
STACK CFI 576f $rbx: .cfa -32 + ^ .cfa: $rsp 32 +
STACK CFI 5779 .cfa: $rsp 96 +
STACK CFI 58f2 .cfa: $rsp 32 +
STACK CFI 58f3 .cfa: $rsp 24 +
STACK CFI 58f4 .cfa: $rsp 16 +
STACK CFI 58f6 .cfa: $rsp 8 +
STACK CFI 5900 .cfa: $rsp 96 +
STACK CFI 5918 .cfa: $rsp 32 +
STACK CFI 5919 .cfa: $rsp 24 +
STACK CFI 591a .cfa: $rsp 16 +
STACK CFI 591c .cfa: $rsp 8 +
STACK CFI 5920 .cfa: $rsp 96 +
STACK CFI INIT 5a90 d5 .cfa: $rsp 8 + .ra: .cfa -8 + ^
STACK CFI 5a96 $r13: .cfa -16 + ^ .cfa: $rsp 16 +
STACK CFI 5aa4 $r12: .cfa -24 + ^ .cfa: $rsp 24 +
STACK CFI 5aab $rbp: .cfa -32 + ^ .cfa: $rsp 32 +
STACK CFI 5aac $rbx: .cfa -40 + ^ .cfa: $rsp 40 +
STACK CFI 5ab3 .cfa: $rsp 48 +
STACK CFI 5ad0 .cfa: $rsp 40 +
STACK CFI 5ad1 .cfa: $rsp 32 +
STACK CFI 5ad2 .cfa: $rsp 24 +
STACK CFI 5ad4 .cfa: $rsp 16 +
STACK CFI 5ad6 .cfa: $rsp 8 +
STACK CFI 5ae0 .cfa: $rsp 48 +
STACK CFI 5b25 .cfa: $rsp 40 +
STACK CFI 5b32 .cfa: $rsp 32 +
STACK CFI 5b33 .cfa: $rsp 24 +
STACK CFI 5b35 .cfa: $rsp 16 +
STACK CFI 5b37 .cfa: $rsp 8 +
STACK CFI 5b40 .cfa: $rsp 48 +
STACK CFI INIT 5b70 4b9 .cfa: $rsp 8 + .ra: .cfa -8 + ^
STACK CFI 5b76 $r15: .cfa -16 + ^ .cfa: $rsp 16 +
STACK CFI 5b78 $r14: .cfa -24 + ^ .cfa: $rsp 24 +
STACK CFI 5b7a $r13: .cfa -32 + ^ .cfa: $rsp 32 +
STACK CFI 5b7f $r12: .cfa -40 + ^ .cfa: $rsp 40 +
STACK CFI 5b80 $rbp: .cfa -48 + ^ .cfa: $rsp 48 +
STACK CFI 5b84 $rbx: .cfa -56 + ^ .cfa: $rsp 56 +
STACK CFI 5b88 .cfa: $rsp 160 +
STACK CFI 5bc5 .cfa: $rsp 56 +
STACK CFI 5bc6 .cfa: $rsp 48 +
STACK CFI 5bc7 .cfa: $rsp 40 +
STACK CFI 5bc9 .cfa: $rsp 32 +
STACK CFI 5bcb .cfa: $rsp 24 +
STACK CFI 5bcd .cfa: $rsp 16 +
STACK CFI 5bcf .cfa: $rsp 8 +
STACK CFI 5bd8 .cfa: $rsp 160 +
STACK CFI 5c55 .cfa: $rsp 56 +
STACK CFI 5c59 .cfa: $rsp 48 +
STACK CFI 5c5a .cfa: $rsp 40 +
STACK CFI 5c5c .cfa: $rsp 32 +
STACK CFI 5c5e .cfa: $rsp 24 +
STACK CFI 5c60 .cfa: $rsp 16 +
STACK CFI 5c62 .cfa: $rsp 8 +
STACK CFI 5c68 .cfa: $rsp 160 +
STACK CFI INIT 3a20 3a $r12: .cfa -40 + ^ $r13: .cfa -32 + ^ $r14: .cfa -24 + ^ $r15: .cfa -16 + ^ $rbp: .cfa -48 + ^ $rbx: .cfa -56 + ^ .cfa: $rsp 160 + .ra: .cfa -8 + ^
STACK CFI INIT 6030 193 .cfa: $rsp 8 + .ra: .cfa -8 + ^
STACK CFI 6036 $r13: .cfa -16 + ^ .cfa: $rsp 16 +
STACK CFI 6038 $r12: .cfa -24 + ^ .cfa: $rsp 24 +
STACK CFI 603c $rbp: .cfa -32 + ^ .cfa: $rsp 32 +
STACK CFI 6040 $rbx: .cfa -40 + ^ .cfa: $rsp 40 +
STACK CFI 6047 .cfa: $rsp 48 +
STACK CFI 614f .cfa: $rsp 40 +
STACK CFI 6156 .cfa: $rsp 32 +
STACK CFI 6157 .cfa: $rsp 24 +
STACK CFI 6159 .cfa: $rsp 16 +
STACK CFI 615b .cfa: $rsp 8 +
STACK CFI 6160 .cfa: $rsp 48 +
STACK CFI 61bc .cfa: $rsp 40 +
STACK CFI 61bd .cfa: $rsp 32 +
STACK CFI 61be .cfa: $rsp 24 +
STACK CFI 61c0 .cfa: $rsp 16 +
STACK CFI 61c2 .cfa: $rsp 8 +
STACK CFI INIT 61d0 1f6 .cfa: $rsp 8 + .ra: .cfa -8 + ^
STACK CFI 61d6 $r15: .cfa -16 + ^ .cfa: $rsp 16 +
STACK CFI 61d8 $r14: .cfa -24 + ^ .cfa: $rsp 24 +
STACK CFI 61da $r13: .cfa -32 + ^ .cfa: $rsp 32 +
STACK CFI 61dc $r12: .cfa -40 + ^ .cfa: $rsp 40 +
STACK CFI 61e0 $rbp: .cfa -48 + ^ .cfa: $rsp 48 +
STACK CFI 61e3 $rbx: .cfa -56 + ^ .cfa: $rsp 56 +
STACK CFI 61ed .cfa: $rsp 224 +
STACK CFI 62db .cfa: $rsp 56 +
STACK CFI 62dc .cfa: $rsp 48 +
STACK CFI 62dd .cfa: $rsp 40 +
STACK CFI 62df .cfa: $rsp 32 +
STACK CFI 62e1 .cfa: $rsp 24 +
STACK CFI 62e3 .cfa: $rsp 16 +
STACK CFI 62e5 .cfa: $rsp 8 +
STACK CFI 62f0 .cfa: $rsp 224 +
STACK CFI INIT 63d0 87 .cfa: $rsp 8 + .ra: .cfa -8 + ^
STACK CFI 63db .cfa: $rsp 1136 +
STACK CFI 6451 .cfa: $rsp 8 +
STACK CFI 6452 .cfa: $rsp 1136 +
STACK CFI INIT 6460 f5 .cfa: $rsp 8 + .ra: .cfa -8 + ^
STACK CFI 6466 $r13: .cfa -16 + ^ .cfa: $rsp 16 +
STACK CFI 646d $r12: .cfa -24 + ^ .cfa: $rsp 24 +
STACK CFI 6471 $rbp: .cfa -32 + ^ .cfa: $rsp 32 +
STACK CFI 6472 $rbx: .cfa -40 + ^ .cfa: $rsp 40 +
STACK CFI 6479 .cfa: $rsp 80 +
STACK CFI 64c3 .cfa: $rsp 40 +
STACK CFI 64c4 .cfa: $rsp 32 +
STACK CFI 64c5 .cfa: $rsp 24 +
STACK CFI 64c7 .cfa: $rsp 16 +
STACK CFI 64c9 .cfa: $rsp 8 +
STACK CFI 64d0 .cfa: $rsp 80 +
STACK CFI INIT 6560 ba .cfa: $rsp 8 + .ra: .cfa -8 + ^
STACK CFI 6566 $r12: .cfa -16 + ^ .cfa: $rsp 16 +
STACK CFI 6570 $rbp: .cfa -24 + ^ .cfa: $rsp 24 +
STACK CFI 657b $rbx: .cfa -32 + ^ .cfa: $rsp 32 +
STACK CFI 65ab .cfa: $rsp 40 +
STACK CFI 65b0 .cfa: $rsp 48 +
STACK CFI 65b8 .cfa: $rsp 56 +
STACK CFI 65c2 .cfa: $rsp 64 +
STACK CFI 65cb .cfa: $rsp 32 +
STACK CFI 65cc .cfa: $rsp 24 +
STACK CFI 65cd .cfa: $rsp 16 +
STACK CFI 65cf .cfa: $rsp 8 +
STACK CFI 65d0 .cfa: $rsp 32 +
STACK CFI 65d5 .cfa: $rsp 40 +
STACK CFI 65da .cfa: $rsp 48 +
STACK CFI 65e2 .cfa: $rsp 56 +
STACK CFI 65ec .cfa: $rsp 64 +
STACK CFI 65f5 .cfa: $rsp 32 +
STACK CFI 65f6 .cfa: $rsp 24 +
STACK CFI 65f7 .cfa: $rsp 16 +
STACK CFI 65f9 .cfa: $rsp 8 +
STACK CFI 6600 .cfa: $rsp 32 +
STACK CFI 660a .cfa: $rsp 40 +
STACK CFI 660b .cfa: $rsp 48 +
STACK CFI 6614 .cfa: $rsp 40 +
STACK CFI 6615 .cfa: $rsp 32 +
STACK CFI 6616 .cfa: $rsp 24 +
STACK CFI 6617 .cfa: $rsp 16 +
STACK CFI 6619 .cfa: $rsp 8 +
STACK CFI INIT 6620 82 .cfa: $rsp 8 + .ra: .cfa -8 + ^
STACK CFI 6625 $rbp: .cfa -16 + ^ .cfa: $rsp 16 +
STACK CFI 6626 $rbx: .cfa -24 + ^ .cfa: $rsp 24 +
STACK CFI 662d .cfa: $rsp 32 +
STACK CFI 6699 .cfa: $rsp 24 +
STACK CFI 669d .cfa: $rsp 16 +
STACK CFI 669e .cfa: $rsp 8 +
STACK CFI INIT 66b0 1b5 .cfa: $rsp 8 + .ra: .cfa -8 + ^
STACK CFI 66b5 $rbx: .cfa -16 + ^ .cfa: $rsp 16 +
STACK CFI 66bc .cfa: $rsp 1664 +
STACK CFI 6748 .cfa: $rsp 16 +
STACK CFI 6749 .cfa: $rsp 8 +
STACK CFI 6750 .cfa: $rsp 1664 +
STACK CFI INIT 6870 d8 .cfa: $rsp 8 + .ra: .cfa -8 + ^
STACK CFI 6876 $r12: .cfa -16 + ^ .cfa: $rsp 16 +
STACK CFI 6877 $rbp: .cfa -24 + ^ .cfa: $rsp 24 +
STACK CFI 6880 $rbx: .cfa -32 + ^ .cfa: $rsp 32 +
STACK CFI 688a .cfa: $rsp 672 +
STACK CFI 693e .cfa: $rsp 32 +
STACK CFI 693f .cfa: $rsp 24 +
STACK CFI 6940 .cfa: $rsp 16 +
STACK CFI 6942 .cfa: $rsp 8 +
STACK CFI 6943 .cfa: $rsp 672 +
STACK CFI INIT 6950 81 .cfa: $rsp 8 + .ra: .cfa -8 + ^
STACK CFI 6956 $r13: .cfa -16 + ^ .cfa: $rsp 16 +
STACK CFI 695b $r12: .cfa -24 + ^ .cfa: $rsp 24 +
STACK CFI 695f $rbp: .cfa -32 + ^ .cfa: $rsp 32 +
STACK CFI 6967 $rbx: .cfa -40 + ^ .cfa: $rsp 40 +
STACK CFI 696e .cfa: $rsp 48 +
STACK CFI 6997 .cfa: $rsp 40 +
STACK CFI 6998 .cfa: $rsp 32 +
STACK CFI 6999 .cfa: $rsp 24 +
STACK CFI 699b .cfa: $rsp 16 +
STACK CFI 699d .cfa: $rsp 8 +
STACK CFI 69a0 .cfa: $rsp 48 +
STACK CFI 69ca .cfa: $rsp 40 +
STACK CFI 69cb .cfa: $rsp 32 +
STACK CFI 69cc .cfa: $rsp 24 +
STACK CFI 69ce .cfa: $rsp 16 +
STACK CFI 69d0 .cfa: $rsp 8 +
STACK CFI INIT 69e0 5a .cfa: $rsp 8 + .ra: .cfa -8 + ^
STACK CFI 69e5 $rbp: .cfa -16 + ^ .cfa: $rsp 16 +
STACK CFI 6a2d .cfa: $rsp 8 +
STACK CFI 6a38 .cfa: $rsp 16 +
STACK CFI 6a39 .cfa: $rsp 8 +
STACK CFI INIT 6a40 252 .cfa: $rsp 8 + .ra: .cfa -8 + ^
STACK CFI 6a46 $r15: .cfa -16 + ^ .cfa: $rsp 16 +
STACK CFI 6a4b $r14: .cfa -24 + ^ .cfa: $rsp 24 +
STACK CFI 6a4d $r13: .cfa -32 + ^ .cfa: $rsp 32 +
STACK CFI 6a4f $r12: .cfa -40 + ^ .cfa: $rsp 40 +
STACK CFI 6a53 $rbp: .cfa -48 + ^ .cfa: $rsp 48 +
STACK CFI 6a56 $rbx: .cfa -56 + ^ .cfa: $rsp 56 +
STACK CFI 6a60 .cfa: $rsp 240 +
STACK CFI 6bd3 .cfa: $rsp 56 +
STACK CFI 6bd7 .cfa: $rsp 48 +
STACK CFI 6bd8 .cfa: $rsp 40 +
STACK CFI 6bda .cfa: $rsp 32 +
STACK CFI 6bdc .cfa: $rsp 24 +
STACK CFI 6bde .cfa: $rsp 16 +
STACK CFI 6be0 .cfa: $rsp 8 +
STACK CFI 6be8 .cfa: $rsp 240 +
STACK CFI INIT 3a5a 1c $r12: .cfa -40 + ^ $r13: .cfa -32 + ^ $r14: .cfa -24 + ^ $r15: .cfa -16 + ^ $rbp: .cfa -48 + ^ $rbx: .cfa -56 + ^ .cfa: $rsp 240 + .ra: .cfa -8 + ^
STACK CFI INIT 6ca0 c .cfa: $rsp 8 + .ra: .cfa -8 + ^
STACK CFI INIT 7240 167 .cfa: $rsp 8 + .ra: .cfa -8 + ^
STACK CFI 7246 $r15: .cfa -16 + ^ .cfa: $rsp 16 +
STACK CFI 7255 $r14: .cfa -24 + ^ .cfa: $rsp 24 +
STACK CFI 7257 $r13: .cfa -32 + ^ .cfa: $rsp 32 +
STACK CFI 7259 $r12: .cfa -40 + ^ .cfa: $rsp 40 +
STACK CFI 725a $rbp: .cfa -48 + ^ .cfa: $rsp 48 +
STACK CFI 725b $rbx: .cfa -56 + ^ .cfa: $rsp 56 +
STACK CFI 725f .cfa: $rsp 80 +
STACK CFI 72e7 .cfa: $rsp 56 +
STACK CFI 72e8 .cfa: $rsp 48 +
STACK CFI 72e9 .cfa: $rsp 40 +
STACK CFI 72eb .cfa: $rsp 32 +
STACK CFI 72ed .cfa: $rsp 24 +
STACK CFI 72ef .cfa: $rsp 16 +
STACK CFI 72f1 .cfa: $rsp 8 +
STACK CFI 72f8 .cfa: $rsp 80 +
STACK CFI INIT 6cb0 30a .cfa: $rsp 8 + .ra: .cfa -8 + ^
STACK CFI 6cb6 $r15: .cfa -16 + ^ .cfa: $rsp 16 +
STACK CFI 6cbc $r14: .cfa -24 + ^ .cfa: $rsp 24 +
STACK CFI 6cbe $r13: .cfa -32 + ^ .cfa: $rsp 32 +
STACK CFI 6cc0 $r12: .cfa -40 + ^ .cfa: $rsp 40 +
STACK CFI 6cc1 $rbp: .cfa -48 + ^ .cfa: $rsp 48 +
STACK CFI 6cc5 $rbx: .cfa -56 + ^ .cfa: $rsp 56 +
STACK CFI 6ccc .cfa: $rsp 80 +
STACK CFI 6de8 .cfa: $rsp 56 +
STACK CFI 6dec .cfa: $rsp 48 +
STACK CFI 6ded .cfa: $rsp 40 +
STACK CFI 6def .cfa: $rsp 32 +
STACK CFI 6df1 .cfa: $rsp 24 +
STACK CFI 6df3 .cfa: $rsp 16 +
STACK CFI 6df5 .cfa: $rsp 8 +
STACK CFI 6e00 .cfa: $rsp 80 +
STACK CFI INIT 3a76 65 $r12: .cfa -40 + ^ $r13: .cfa -32 + ^ $r14: .cfa -24 + ^ $r15: .cfa -16 + ^ $rbp: .cfa -48 + ^ $rbx: .cfa -56 + ^ .cfa: $rsp 80 + .ra: .cfa -8 + ^
STACK CFI INIT 6fc0 27c .cfa: $rsp 8 + .ra: .cfa -8 + ^
STACK CFI 6fc5 $rbp: .cfa -16 + ^ .cfa: $rsp 16 +
STACK CFI 6fc8 .cfa: $rbp 16 +
STACK CFI 6fca $r15: .cfa -24 + ^
STACK CFI 6fcf $r14: .cfa -32 + ^
STACK CFI 6fd7 $r12: .cfa -48 + ^ $r13: .cfa -40 + ^ $rbx: .cfa -56 + ^
STACK CFI 7182 .cfa: $rsp 8 +
STACK CFI 7188 .cfa: $rbp 16 +
STACK CFI INIT 3adc 2b $r12: .cfa -48 + ^ $r13: .cfa -40 + ^ $r14: .cfa -32 + ^ $r15: .cfa -24 + ^ $rbp: .cfa -16 + ^ $rbx: .cfa -56 + ^ .cfa: $rbp 16 + .ra: .cfa -8 + ^
STACK CFI INIT 73b0 c0 .cfa: $rsp 8 + .ra: .cfa -8 + ^
STACK CFI 73b2 $r12: .cfa -16 + ^ .cfa: $rsp 16 +
STACK CFI 73b6 $rbp: .cfa -24 + ^ .cfa: $rsp 24 +
STACK CFI 73ba $rbx: .cfa -32 + ^ .cfa: $rsp 32 +
STACK CFI 73c1 .cfa: $rsp 48 +
STACK CFI 741f .cfa: $rsp 32 +
STACK CFI 7420 .cfa: $rsp 24 +
STACK CFI 7421 .cfa: $rsp 16 +
STACK CFI 7423 .cfa: $rsp 8 +
STACK CFI 7428 .cfa: $rsp 48 +
STACK CFI INIT 7470 a6 .cfa: $rsp 8 + .ra: .cfa -8 + ^
STACK CFI 7475 $rbp: .cfa -16 + ^ .cfa: $rsp 16 +
STACK CFI 7479 $rbx: .cfa -24 + ^ .cfa: $rsp 24 +
STACK CFI 7484 .cfa: $rsp 32 +
STACK CFI 74f4 .cfa: $rsp 24 +
STACK CFI 74f5 .cfa: $rsp 16 +
STACK CFI 74f6 .cfa: $rsp 8 +
STACK CFI 74f7 .cfa: $rsp 32 +
STACK CFI INIT 7520 395 .cfa: $rsp 8 + .ra: .cfa -8 + ^
STACK CFI 7526 $r14: .cfa -16 + ^ .cfa: $rsp 16 +
STACK CFI 7528 $r13: .cfa -24 + ^ .cfa: $rsp 24 +
STACK CFI 752a $r12: .cfa -32 + ^ .cfa: $rsp 32 +
STACK CFI 752b $rbp: .cfa -40 + ^ .cfa: $rsp 40 +
STACK CFI 752c $rbx: .cfa -48 + ^ .cfa: $rsp 48 +
STACK CFI 7533 .cfa: $rsp 208 +
STACK CFI 778d .cfa: $rsp 48 +
STACK CFI 778e .cfa: $rsp 40 +
STACK CFI 778f .cfa: $rsp 32 +
STACK CFI 7791 .cfa: $rsp 24 +
STACK CFI 7793 .cfa: $rsp 16 +
STACK CFI 7795 .cfa: $rsp 8 +
STACK CFI 77a0 .cfa: $rsp 208 +
STACK CFI INIT 3b08 18 $r12: .cfa -32 + ^ $r13: .cfa -24 + ^ $r14: .cfa -16 + ^ $rbp: .cfa -40 + ^ $rbx: .cfa -48 + ^ .cfa: $rsp 208 + .ra: .cfa -8 + ^
STACK CFI INIT 78c0 c2 .cfa: $rsp 8 + .ra: .cfa -8 + ^
STACK CFI 78c6 $r12: .cfa -16 + ^ .cfa: $rsp 16 +
STACK CFI 78c7 $rbx: .cfa -24 + ^ .cfa: $rsp 24 +
STACK CFI 78cb .cfa: $rsp 32 +
STACK CFI 795f .cfa: $rsp 24 +
STACK CFI 7960 .cfa: $rsp 16 +
STACK CFI 7962 .cfa: $rsp 8 +
STACK CFI 7963 .cfa: $rsp 32 +
STACK CFI INIT 7990 40 .cfa: $rsp 8 + .ra: .cfa -8 + ^
STACK CFI 79a0 $rbx: .cfa -16 + ^ .cfa: $rsp 16 +
STACK CFI 79b8 .cfa: $rsp 8 +
STACK CFI 79c0 .cfa: $rsp 16 +
STACK CFI 79cf .cfa: $rsp 8 +
STACK CFI INIT 79d0 53f .cfa: $rsp 8 + .ra: .cfa -8 + ^
STACK CFI 79d2 $r15: .cfa -16 + ^ .cfa: $rsp 16 +
STACK CFI 79d7 $r14: .cfa -24 + ^ .cfa: $rsp 24 +
STACK CFI 79d9 $r13: .cfa -32 + ^ .cfa: $rsp 32 +
STACK CFI 79db $r12: .cfa -40 + ^ .cfa: $rsp 40 +
STACK CFI 79df $rbp: .cfa -48 + ^ .cfa: $rsp 48 +
STACK CFI 79e0 $rbx: .cfa -56 + ^ .cfa: $rsp 56 +
STACK CFI 79e7 .cfa: $rsp 736 +
STACK CFI 7edd .cfa: $rsp 56 +
STACK CFI 7ede .cfa: $rsp 48 +
STACK CFI 7edf .cfa: $rsp 40 +
STACK CFI 7ee1 .cfa: $rsp 32 +
STACK CFI 7ee3 .cfa: $rsp 24 +
STACK CFI 7ee5 .cfa: $rsp 16 +
STACK CFI 7ee7 .cfa: $rsp 8 +
STACK CFI 7ef0 .cfa: $rsp 736 +
STACK CFI INIT 7f10 fdb .cfa: $rsp 8 + .ra: .cfa -8 + ^
STACK CFI 7f16 $r15: .cfa -16 + ^ .cfa: $rsp 16 +
STACK CFI 7f18 $r14: .cfa -24 + ^ .cfa: $rsp 24 +
STACK CFI 7f1d $r13: .cfa -32 + ^ .cfa: $rsp 32 +
STACK CFI 7f22 $r12: .cfa -40 + ^ .cfa: $rsp 40 +
STACK CFI 7f26 $rbp: .cfa -48 + ^ .cfa: $rsp 48 +
STACK CFI 7f2a $rbx: .cfa -56 + ^ .cfa: $rsp 56 +
STACK CFI 7f36 .cfa: $rsp 1936 +
STACK CFI 7fca .cfa: $rsp 56 +
STACK CFI 7fcb .cfa: $rsp 48 +
STACK CFI 7fcc .cfa: $rsp 40 +
STACK CFI 7fce .cfa: $rsp 32 +
STACK CFI 7fd0 .cfa: $rsp 24 +
STACK CFI 7fd2 .cfa: $rsp 16 +
STACK CFI 7fd4 .cfa: $rsp 8 +
STACK CFI 7fd8 .cfa: $rsp 1936 +
STACK CFI INIT 3b20 30 $r12: .cfa -40 + ^ $r13: .cfa -32 + ^ $r14: .cfa -24 + ^ $r15: .cfa -16 + ^ $rbp: .cfa -48 + ^ $rbx: .cfa -56 + ^ .cfa: $rsp 1936 + .ra: .cfa -8 + ^
STACK CFI INIT 8ef0 a .cfa: $rsp 8 + .ra: .cfa -8 + ^
STACK CFI INIT 8f00 966 .cfa: $rsp 8 + .ra: .cfa -8 + ^
STACK CFI 8f06 $r15: .cfa -16 + ^ .cfa: $rsp 16 +
STACK CFI 8f12 $r14: .cfa -24 + ^ .cfa: $rsp 24 +
STACK CFI 8f14 $r13: .cfa -32 + ^ .cfa: $rsp 32 +
STACK CFI 8f16 $r12: .cfa -40 + ^ .cfa: $rsp 40 +
STACK CFI 8f17 $rbp: .cfa -48 + ^ .cfa: $rsp 48 +
STACK CFI 8f18 $rbx: .cfa -56 + ^ .cfa: $rsp 56 +
STACK CFI 8f1f .cfa: $rsp 464 +
STACK CFI 9181 .cfa: $rsp 56 +
STACK CFI 9182 .cfa: $rsp 48 +
STACK CFI 9183 .cfa: $rsp 40 +
STACK CFI 9185 .cfa: $rsp 32 +
STACK CFI 9187 .cfa: $rsp 24 +
STACK CFI 9189 .cfa: $rsp 16 +
STACK CFI 918b .cfa: $rsp 8 +
STACK CFI 9190 .cfa: $rsp 464 +
STACK CFI INIT 3b50 16 $r12: .cfa -40 + ^ $r13: .cfa -32 + ^ $r14: .cfa -24 + ^ $r15: .cfa -16 + ^ $rbp: .cfa -48 + ^ $rbx: .cfa -56 + ^ .cfa: $rsp 464 + .ra: .cfa -8 + ^
STACK CFI INIT 9870 8b .cfa: $rsp 8 + .ra: .cfa -8 + ^
STACK CFI 9876 $r13: .cfa -16 + ^ .cfa: $rsp 16 +
STACK CFI 987b $r12: .cfa -24 + ^ .cfa: $rsp 24 +
STACK CFI 987c $rbp: .cfa -32 + ^ .cfa: $rsp 32 +
STACK CFI 987d $rbx: .cfa -40 + ^ .cfa: $rsp 40 +
STACK CFI 9881 .cfa: $rsp 48 +
STACK CFI 98de .cfa: $rsp 40 +
STACK CFI 98df .cfa: $rsp 32 +
STACK CFI 98e0 .cfa: $rsp 24 +
STACK CFI 98e5 .cfa: $rsp 16 +
STACK CFI 98e7 .cfa: $rsp 8 +
STACK CFI 98f0 .cfa: $rsp 48 +
STACK CFI 98f4 .cfa: $rsp 40 +
STACK CFI 98f5 .cfa: $rsp 32 +
STACK CFI 98f6 .cfa: $rsp 24 +
STACK CFI 98f8 .cfa: $rsp 16 +
STACK CFI 98fa .cfa: $rsp 8 +
STACK CFI INIT 9900 1b .cfa: $rsp 8 + .ra: .cfa -8 + ^
STACK CFI 9905 $rbp: .cfa -16 + ^ .cfa: $rsp 16 +
STACK CFI 9916 .cfa: $rsp 8 +
STACK CFI INIT 9920 18 .cfa: $rsp 8 + .ra: .cfa -8 + ^
STACK CFI INIT 9940 244 .cfa: $rsp 8 + .ra: .cfa -8 + ^
STACK CFI INIT 9b90 61 .cfa: $rsp 8 + .ra: .cfa -8 + ^
STACK CFI 9b95 $rbp: .cfa -16 + ^ .cfa: $rsp 16 +
STACK CFI 9b9e $rbx: .cfa -24 + ^ .cfa: $rsp 24 +
STACK CFI 9ba5 .cfa: $rsp 32 +
STACK CFI 9bc3 .cfa: $rsp 24 +
STACK CFI 9bc4 .cfa: $rsp 16 +
STACK CFI 9bc5 .cfa: $rsp 8 +
STACK CFI 9bd0 .cfa: $rsp 32 +
STACK CFI 9bee .cfa: $rsp 24 +
STACK CFI 9bef .cfa: $rsp 16 +
STACK CFI 9bf0 .cfa: $rsp 8 +
STACK CFI INIT 9c00 ef .cfa: $rsp 8 + .ra: .cfa -8 + ^
STACK CFI 9c02 $r15: .cfa -16 + ^ .cfa: $rsp 16 +
STACK CFI 9c04 $r14: .cfa -24 + ^ .cfa: $rsp 24 +
STACK CFI 9c06 $r13: .cfa -32 + ^ .cfa: $rsp 32 +
STACK CFI 9c08 $r12: .cfa -40 + ^ .cfa: $rsp 40 +
STACK CFI 9c09 $rbp: .cfa -48 + ^ .cfa: $rsp 48 +
STACK CFI 9c10 .cfa: $rsp 4144 +
STACK CFI 9c19 .cfa: $rsp 4192 +
STACK CFI 9c6d .cfa: $rsp 48 +
STACK CFI 9c6e .cfa: $rsp 40 +
STACK CFI 9c70 .cfa: $rsp 32 +
STACK CFI 9c72 .cfa: $rsp 24 +
STACK CFI 9c74 .cfa: $rsp 16 +
STACK CFI 9c76 .cfa: $rsp 8 +
STACK CFI 9c80 .cfa: $rsp 4192 +
STACK CFI INIT 3b66 10 $r12: .cfa -40 + ^ $r13: .cfa -32 + ^ $r14: .cfa -24 + ^ $r15: .cfa -16 + ^ $rbp: .cfa -48 + ^ .cfa: $rsp 4192 + .ra: .cfa -8 + ^
STACK CFI INIT 9cf0 1a3 .cfa: $rsp 8 + .ra: .cfa -8 + ^
STACK CFI 9cf2 $r14: .cfa -16 + ^ .cfa: $rsp 16 +
STACK CFI 9cf4 $r13: .cfa -24 + ^ .cfa: $rsp 24 +
STACK CFI 9cf6 $r12: .cfa -32 + ^ .cfa: $rsp 32 +
STACK CFI 9cf7 $rbp: .cfa -40 + ^ .cfa: $rsp 40 +
STACK CFI 9cf8 $rbx: .cfa -48 + ^ .cfa: $rsp 48 +
STACK CFI 9cff .cfa: $rsp 4144 +
STACK CFI 9d0b .cfa: $rsp 5008 +
STACK CFI 9d64 .cfa: $rsp 48 +
STACK CFI 9d68 .cfa: $rsp 40 +
STACK CFI 9d69 .cfa: $rsp 32 +
STACK CFI 9d6b .cfa: $rsp 24 +
STACK CFI 9d6d .cfa: $rsp 16 +
STACK CFI 9d6f .cfa: $rsp 8 +
STACK CFI 9d70 .cfa: $rsp 5008 +
STACK CFI INIT 9ea0 12e .cfa: $rsp 8 + .ra: .cfa -8 + ^
STACK CFI 9ea6 $r15: .cfa -16 + ^ .cfa: $rsp 16 +
STACK CFI 9eab $r14: .cfa -24 + ^ .cfa: $rsp 24 +
STACK CFI 9eb0 $r13: .cfa -32 + ^ .cfa: $rsp 32 +
STACK CFI 9eb5 $r12: .cfa -40 + ^ .cfa: $rsp 40 +
STACK CFI 9eb9 $rbp: .cfa -48 + ^ .cfa: $rsp 48 +
STACK CFI 9ec0 $rbx: .cfa -56 + ^ .cfa: $rsp 56 +
STACK CFI 9ece .cfa: $rsp 64 +
STACK CFI 9f36 .cfa: $rsp 56 +
STACK CFI 9f37 .cfa: $rsp 48 +
STACK CFI 9f38 .cfa: $rsp 40 +
STACK CFI 9f3a .cfa: $rsp 32 +
STACK CFI 9f3c .cfa: $rsp 24 +
STACK CFI 9f3e .cfa: $rsp 16 +
STACK CFI 9f40 .cfa: $rsp 8 +
STACK CFI 9f48 .cfa: $rsp 64 +
STACK CFI 9f91 .cfa: $rsp 56 +
STACK CFI 9f92 .cfa: $rsp 48 +
STACK CFI 9f93 .cfa: $rsp 40 +
STACK CFI 9f95 .cfa: $rsp 32 +
STACK CFI 9f97 .cfa: $rsp 24 +
STACK CFI 9f99 .cfa: $rsp 16 +
STACK CFI 9f9b .cfa: $rsp 8 +
STACK CFI 9fa0 .cfa: $rsp 64 +
STACK CFI 9fb6 .cfa: $rsp 56 +
STACK CFI 9fbd .cfa: $rsp 48 +
STACK CFI 9fc1 .cfa: $rsp 40 +
STACK CFI 9fc3 .cfa: $rsp 32 +
STACK CFI 9fc5 .cfa: $rsp 24 +
STACK CFI 9fc7 .cfa: $rsp 16 +
STACK CFI 9fc9 .cfa: $rsp 8 +
STACK CFI INIT 9fd0 13d .cfa: $rsp 8 + .ra: .cfa -8 + ^
STACK CFI 9fd6 $r12: .cfa -16 + ^ .cfa: $rsp 16 +
STACK CFI 9fde $rbp: .cfa -24 + ^ .cfa: $rsp 24 +
STACK CFI 9fe2 $rbx: .cfa -32 + ^ .cfa: $rsp 32 +
STACK CFI 9fe9 .cfa: $rsp 336 +
STACK CFI a0c8 .cfa: $rsp 32 +
STACK CFI a0cc .cfa: $rsp 24 +
STACK CFI a0cd .cfa: $rsp 16 +
STACK CFI a0cf .cfa: $rsp 8 +
STACK CFI a0d0 .cfa: $rsp 336 +
STACK CFI INIT a110 34 .cfa: $rsp 8 + .ra: .cfa -8 + ^
STACK CFI a115 $rbp: .cfa -16 + ^ .cfa: $rsp 16 +
STACK CFI a137 .cfa: $rsp 8 +
STACK CFI a140 .cfa: $rsp 16 +
STACK CFI a143 .cfa: $rsp 8 +
STACK CFI INIT a150 48 .cfa: $rsp 8 + .ra: .cfa -8 + ^
STACK CFI INIT a1a0 48 .cfa: $rsp 8 + .ra: .cfa -8 + ^
STACK CFI INIT a1f0 73 .cfa: $rsp 8 + .ra: .cfa -8 + ^
STACK CFI a1f6 $r14: .cfa -16 + ^ .cfa: $rsp 16 +
STACK CFI a1fb $r13: .cfa -24 + ^ .cfa: $rsp 24 +
STACK CFI a200 $r12: .cfa -32 + ^ .cfa: $rsp 32 +
STACK CFI a204 $rbp: .cfa -40 + ^ .cfa: $rsp 40 +
STACK CFI a208 $rbx: .cfa -48 + ^ .cfa: $rsp 48 +
STACK CFI a24d .cfa: $rsp 40 +
STACK CFI a24e .cfa: $rsp 32 +
STACK CFI a250 .cfa: $rsp 24 +
STACK CFI a252 .cfa: $rsp 16 +
STACK CFI a254 .cfa: $rsp 8 +
STACK CFI a258 .cfa: $rsp 48 +
STACK CFI a259 .cfa: $rsp 40 +
STACK CFI a25c .cfa: $rsp 32 +
STACK CFI a25e .cfa: $rsp 24 +
STACK CFI a260 .cfa: $rsp 16 +
STACK CFI a262 .cfa: $rsp 8 +
STACK CFI INIT a270 40 .cfa: $rsp 8 + .ra: .cfa -8 + ^
STACK CFI INIT a2b0 22f .cfa: $rsp 8 + .ra: .cfa -8 + ^
STACK CFI a2b6 $r15: .cfa -16 + ^ .cfa: $rsp 16 +
STACK CFI a2b8 $r14: .cfa -24 + ^ .cfa: $rsp 24 +
STACK CFI a2ba $r13: .cfa -32 + ^ .cfa: $rsp 32 +
STACK CFI a2bf $r12: .cfa -40 + ^ .cfa: $rsp 40 +
STACK CFI a2c0 $rbp: .cfa -48 + ^ .cfa: $rsp 48 +
STACK CFI a2c1 $rbx: .cfa -56 + ^ .cfa: $rsp 56 +
STACK CFI a2cb .cfa: $rsp 384 +
STACK CFI a499 .cfa: $rsp 56 +
STACK CFI a49a .cfa: $rsp 48 +
STACK CFI a49b .cfa: $rsp 40 +
STACK CFI a49d .cfa: $rsp 32 +
STACK CFI a49f .cfa: $rsp 24 +
STACK CFI a4a1 .cfa: $rsp 16 +
STACK CFI a4a3 .cfa: $rsp 8 +
STACK CFI a4a8 .cfa: $rsp 384 +
STACK CFI INIT a4e0 5c .cfa: $rsp 8 + .ra: .cfa -8 + ^
STACK CFI a4e6 $r12: .cfa -16 + ^ .cfa: $rsp 16 +
STACK CFI a4ed $rbp: .cfa -24 + ^ .cfa: $rsp 24 +
STACK CFI a4f4 .cfa: $rsp 32 +
STACK CFI a503 .cfa: $rsp 24 +
STACK CFI a506 .cfa: $rsp 16 +
STACK CFI a508 .cfa: $rsp 8 +
STACK CFI a510 .cfa: $rsp 32 +
STACK CFI a52e .cfa: $rsp 24 +
STACK CFI a535 .cfa: $rsp 16 +
STACK CFI a537 .cfa: $rsp 8 +
STACK CFI INIT a540 358 .cfa: $rsp 8 + .ra: .cfa -8 + ^
STACK CFI a546 $r15: .cfa -16 + ^ .cfa: $rsp 16 +
STACK CFI a548 $r14: .cfa -24 + ^ .cfa: $rsp 24 +
STACK CFI a54a $r13: .cfa -32 + ^ .cfa: $rsp 32 +
STACK CFI a54c $r12: .cfa -40 + ^ .cfa: $rsp 40 +
STACK CFI a54d $rbp: .cfa -48 + ^ .cfa: $rsp 48 +
STACK CFI a54e $rbx: .cfa -56 + ^ .cfa: $rsp 56 +
STACK CFI a555 .cfa: $rsp 4152 +
STACK CFI a55e .cfa: $rsp 4208 +
STACK CFI a5de .cfa: $rsp 56 +
STACK CFI a5df .cfa: $rsp 48 +
STACK CFI a5e0 .cfa: $rsp 40 +
STACK CFI a5e2 .cfa: $rsp 32 +
STACK CFI a5e4 .cfa: $rsp 24 +
STACK CFI a5e6 .cfa: $rsp 16 +
STACK CFI a5e8 .cfa: $rsp 8 +
STACK CFI a5f0 .cfa: $rsp 4208 +
STACK CFI a652 .cfa: $rsp 56 +
STACK CFI a659 .cfa: $rsp 48 +
STACK CFI a65a .cfa: $rsp 40 +
STACK CFI a65c .cfa: $rsp 32 +
STACK CFI a65e .cfa: $rsp 24 +
STACK CFI a660 .cfa: $rsp 16 +
STACK CFI a662 .cfa: $rsp 8 +
STACK CFI a670 .cfa: $rsp 4208 +
STACK CFI INIT 3b76 10 $r12: .cfa -40 + ^ $r13: .cfa -32 + ^ $r14: .cfa -24 + ^ $r15: .cfa -16 + ^ $rbp: .cfa -48 + ^ $rbx: .cfa -56 + ^ .cfa: $rsp 4208 + .ra: .cfa -8 + ^
STACK CFI INIT ae80 2d3 .cfa: $rsp 8 + .ra: .cfa -8 + ^
STACK CFI ae95 $r15: .cfa -16 + ^ .cfa: $rsp 16 +
STACK CFI ae97 $r14: .cfa -24 + ^ .cfa: $rsp 24 +
STACK CFI ae99 $r13: .cfa -32 + ^ .cfa: $rsp 32 +
STACK CFI ae9b $r12: .cfa -40 + ^ .cfa: $rsp 40 +
STACK CFI ae9c $rbp: .cfa -48 + ^ .cfa: $rsp 48 +
STACK CFI aea0 $rbx: .cfa -56 + ^ .cfa: $rsp 56 +
STACK CFI aea7 .cfa: $rsp 96 +
STACK CFI aeee .cfa: $rsp 56 +
STACK CFI aeef .cfa: $rsp 48 +
STACK CFI aef0 .cfa: $rsp 40 +
STACK CFI aef2 .cfa: $rsp 32 +
STACK CFI aef4 .cfa: $rsp 24 +
STACK CFI aef6 .cfa: $rsp 16 +
STACK CFI aef8 .cfa: $rsp 8 +
STACK CFI af00 $r12: $r12 $r13: $r13 $r14: $r14 $r15: $r15 $rbp: $rbp $rbx: $rbx
STACK CFI af08 $r12: .cfa -40 + ^ $r13: .cfa -32 + ^ $r14: .cfa -24 + ^ $r15: .cfa -16 + ^ $rbp: .cfa -48 + ^ $rbx: .cfa -56 + ^ .cfa: $rsp 96 +
STACK CFI af9b .cfa: $rsp 56 +
STACK CFI af9c .cfa: $rsp 48 +
STACK CFI af9d .cfa: $rsp 40 +
STACK CFI af9f .cfa: $rsp 32 +
STACK CFI afa1 .cfa: $rsp 24 +
STACK CFI afa3 .cfa: $rsp 16 +
STACK CFI afa5 .cfa: $rsp 8 +
STACK CFI afa6 .cfa: $rsp 96 +
STACK CFI INIT a8a0 5dd .cfa: $rsp 8 + .ra: .cfa -8 + ^
STACK CFI a8a6 $r15: .cfa -16 + ^ .cfa: $rsp 16 +
STACK CFI a8a8 $r14: .cfa -24 + ^ .cfa: $rsp 24 +
STACK CFI a8b1 $r13: .cfa -32 + ^ .cfa: $rsp 32 +
STACK CFI a8b9 $r12: .cfa -40 + ^ .cfa: $rsp 40 +
STACK CFI a8ba $rbp: .cfa -48 + ^ .cfa: $rsp 48 +
STACK CFI a8bf $rbx: .cfa -56 + ^ .cfa: $rsp 56 +
STACK CFI a8c6 .cfa: $rsp 64 +
STACK CFI ad22 .cfa: $rsp 56 +
STACK CFI ad23 .cfa: $rsp 48 +
STACK CFI ad24 .cfa: $rsp 40 +
STACK CFI ad26 .cfa: $rsp 32 +
STACK CFI ad28 .cfa: $rsp 24 +
STACK CFI ad2a .cfa: $rsp 16 +
STACK CFI ad2c .cfa: $rsp 8 +
STACK CFI ad30 .cfa: $rsp 64 +
STACK CFI ad4c .cfa: $rsp 56 +
STACK CFI ad4d .cfa: $rsp 48 +
STACK CFI ad4e .cfa: $rsp 40 +
STACK CFI ad50 .cfa: $rsp 32 +
STACK CFI ad52 .cfa: $rsp 24 +
STACK CFI ad54 .cfa: $rsp 16 +
STACK CFI ad56 .cfa: $rsp 8 +
STACK CFI ad60 .cfa: $rsp 64 +
STACK CFI INIT 3b86 56 $r12: .cfa -40 + ^ $r13: .cfa -32 + ^ $r14: .cfa -24 + ^ $r15: .cfa -16 + ^ $rbp: .cfa -48 + ^ $rbx: .cfa -56 + ^ .cfa: $rsp 64 + .ra: .cfa -8 + ^
STACK CFI INIT b160 7 .cfa: $rsp 8 + .ra: .cfa -8 + ^
STACK CFI INIT b170 189 .cfa: $rsp 8 + .ra: .cfa -8 + ^
STACK CFI b176 $r15: .cfa -16 + ^ .cfa: $rsp 16 +
STACK CFI b178 $r14: .cfa -24 + ^ .cfa: $rsp 24 +
STACK CFI b17a $r13: .cfa -32 + ^ .cfa: $rsp 32 +
STACK CFI b17f $r12: .cfa -40 + ^ .cfa: $rsp 40 +
STACK CFI b180 $rbp: .cfa -48 + ^ .cfa: $rsp 48 +
STACK CFI b181 $rbx: .cfa -56 + ^ .cfa: $rsp 56 +
STACK CFI b185 .cfa: $rsp 96 +
STACK CFI b231 .cfa: $rsp 56 +
STACK CFI b237 .cfa: $rsp 48 +
STACK CFI b238 .cfa: $rsp 40 +
STACK CFI b23a .cfa: $rsp 32 +
STACK CFI b23c .cfa: $rsp 24 +
STACK CFI b23e .cfa: $rsp 16 +
STACK CFI b240 .cfa: $rsp 8 +
STACK CFI b248 .cfa: $rsp 96 +
STACK CFI INIT c410 17 .cfa: $rsp 8 + .ra: .cfa -8 + ^
STACK CFI INIT c430 29 .cfa: $rsp 8 + .ra: .cfa -8 + ^
STACK CFI c43c $rbp: .cfa -16 + ^ .cfa: $rsp 16 +
STACK CFI c454 .cfa: $rsp 8 +
STACK CFI INIT b300 a8 .cfa: $rsp 8 + .ra: .cfa -8 + ^
STACK CFI b302 $r15: .cfa -16 + ^ .cfa: $rsp 16 +
STACK CFI b304 $r14: .cfa -24 + ^ .cfa: $rsp 24 +
STACK CFI b309 $r13: .cfa -32 + ^ .cfa: $rsp 32 +
STACK CFI b311 $r12: .cfa -40 + ^ .cfa: $rsp 40 +
STACK CFI b312 $rbp: .cfa -48 + ^ .cfa: $rsp 48 +
STACK CFI b316 $rbx: .cfa -56 + ^ .cfa: $rsp 56 +
STACK CFI b31a .cfa: $rsp 64 +
STACK CFI b328 .cfa: $rsp 56 +
STACK CFI b32b .cfa: $rsp 48 +
STACK CFI b32c .cfa: $rsp 40 +
STACK CFI b32e .cfa: $rsp 32 +
STACK CFI b330 .cfa: $rsp 24 +
STACK CFI b332 .cfa: $rsp 16 +
STACK CFI b334 .cfa: $rsp 8 +
STACK CFI b338 .cfa: $rsp 64 +
STACK CFI b398 .cfa: $rsp 56 +
STACK CFI b39e .cfa: $rsp 48 +
STACK CFI b39f .cfa: $rsp 40 +
STACK CFI b3a1 .cfa: $rsp 32 +
STACK CFI b3a3 .cfa: $rsp 24 +
STACK CFI b3a5 .cfa: $rsp 16 +
STACK CFI b3a7 .cfa: $rsp 8 +
STACK CFI INIT b3b0 2b .cfa: $rsp 8 + .ra: .cfa -8 + ^
STACK CFI INIT b3e0 bd .cfa: $rsp 8 + .ra: .cfa -8 + ^
STACK CFI b3f7 $r13: .cfa -16 + ^ .cfa: $rsp 16 +
STACK CFI b3f9 $r12: .cfa -24 + ^ .cfa: $rsp 24 +
STACK CFI b3fd $rbp: .cfa -32 + ^ .cfa: $rsp 32 +
STACK CFI b3fe $rbx: .cfa -40 + ^ .cfa: $rsp 40 +
STACK CFI b402 .cfa: $rsp 48 +
STACK CFI b476 .cfa: $rsp 40 +
STACK CFI b47a .cfa: $rsp 32 +
STACK CFI b47b .cfa: $rsp 24 +
STACK CFI b47d .cfa: $rsp 16 +
STACK CFI b47f .cfa: $rsp 8 +
STACK CFI b480 $r12: $r12 $r13: $r13 $rbp: $rbp $rbx: $rbx
STACK CFI b488 $r12: .cfa -24 + ^ $r13: .cfa -16 + ^ $rbp: .cfa -32 + ^ $rbx: .cfa -40 + ^ .cfa: $rsp 48 +
STACK CFI INIT b4a0 63f .cfa: $rsp 8 + .ra: .cfa -8 + ^
STACK CFI b4a6 $r15: .cfa -16 + ^ .cfa: $rsp 16 +
STACK CFI b4b2 $r14: .cfa -24 + ^ .cfa: $rsp 24 +
STACK CFI b4b4 $r13: .cfa -32 + ^ .cfa: $rsp 32 +
STACK CFI b4b6 $r12: .cfa -40 + ^ .cfa: $rsp 40 +
STACK CFI b4b7 $rbp: .cfa -48 + ^ .cfa: $rsp 48 +
STACK CFI b4b8 $rbx: .cfa -56 + ^ .cfa: $rsp 56 +
STACK CFI b4bf .cfa: $rsp 432 +
STACK CFI b552 .cfa: $rsp 56 +
STACK CFI b556 .cfa: $rsp 48 +
STACK CFI b557 .cfa: $rsp 40 +
STACK CFI b559 .cfa: $rsp 32 +
STACK CFI b55b .cfa: $rsp 24 +
STACK CFI b55d .cfa: $rsp 16 +
STACK CFI b55f .cfa: $rsp 8 +
STACK CFI b560 .cfa: $rsp 432 +
STACK CFI INIT 3bdc 19 $r12: .cfa -40 + ^ $r13: .cfa -32 + ^ $r14: .cfa -24 + ^ $r15: .cfa -16 + ^ $rbp: .cfa -48 + ^ $rbx: .cfa -56 + ^ .cfa: $rsp 432 + .ra: .cfa -8 + ^
STACK CFI INIT bae0 2b .cfa: $rsp 8 + .ra: .cfa -8 + ^
STACK CFI bae5 $rbx: .cfa -16 + ^ .cfa: $rsp 16 +
STACK CFI bb0a .cfa: $rsp 8 +
STACK CFI INIT bb10 e5 .cfa: $rsp 8 + .ra: .cfa -8 + ^
STACK CFI bb16 $r15: .cfa -16 + ^ .cfa: $rsp 16 +
STACK CFI bb18 $r14: .cfa -24 + ^ .cfa: $rsp 24 +
STACK CFI bb20 $r13: .cfa -32 + ^ .cfa: $rsp 32 +
STACK CFI bb22 $r12: .cfa -40 + ^ .cfa: $rsp 40 +
STACK CFI bb26 $rbp: .cfa -48 + ^ .cfa: $rsp 48 +
STACK CFI bb2f $rbx: .cfa -56 + ^ .cfa: $rsp 56 +
STACK CFI bb36 .cfa: $rsp 112 +
STACK CFI bbb9 .cfa: $rsp 56 +
STACK CFI bbba .cfa: $rsp 48 +
STACK CFI bbbb .cfa: $rsp 40 +
STACK CFI bbbd .cfa: $rsp 32 +
STACK CFI bbbf .cfa: $rsp 24 +
STACK CFI bbc1 .cfa: $rsp 16 +
STACK CFI bbc3 .cfa: $rsp 8 +
STACK CFI bbc8 .cfa: $rsp 112 +
STACK CFI INIT bc00 dd .cfa: $rsp 8 + .ra: .cfa -8 + ^
STACK CFI bc06 $r14: .cfa -16 + ^ .cfa: $rsp 16 +
STACK CFI bc08 $r13: .cfa -24 + ^ .cfa: $rsp 24 +
STACK CFI bc0d $r12: .cfa -32 + ^ .cfa: $rsp 32 +
STACK CFI bc11 $rbp: .cfa -40 + ^ .cfa: $rsp 40 +
STACK CFI bc1a $rbx: .cfa -48 + ^ .cfa: $rsp 48 +
STACK CFI bc23 .cfa: $rsp 80 +
STACK CFI bca6 .cfa: $rsp 48 +
STACK CFI bca7 .cfa: $rsp 40 +
STACK CFI bca8 .cfa: $rsp 32 +
STACK CFI bcaa .cfa: $rsp 24 +
STACK CFI bcac .cfa: $rsp 16 +
STACK CFI bcae .cfa: $rsp 8 +
STACK CFI bcb0 .cfa: $rsp 80 +
STACK CFI INIT bce0 4b4 .cfa: $rsp 8 + .ra: .cfa -8 + ^
STACK CFI bce6 $r15: .cfa -16 + ^ .cfa: $rsp 16 +
STACK CFI bce8 $r14: .cfa -24 + ^ .cfa: $rsp 24 +
STACK CFI bcea $r13: .cfa -32 + ^ .cfa: $rsp 32 +
STACK CFI bcec $r12: .cfa -40 + ^ .cfa: $rsp 40 +
STACK CFI bced $rbp: .cfa -48 + ^ .cfa: $rsp 48 +
STACK CFI bcee $rbx: .cfa -56 + ^ .cfa: $rsp 56 +
STACK CFI bcf8 .cfa: $rsp 368 +
STACK CFI bdc9 .cfa: $rsp 56 +
STACK CFI bdca .cfa: $rsp 48 +
STACK CFI bdcb .cfa: $rsp 40 +
STACK CFI bdcd .cfa: $rsp 32 +
STACK CFI bdcf .cfa: $rsp 24 +
STACK CFI bdd1 .cfa: $rsp 16 +
STACK CFI bdd3 .cfa: $rsp 8 +
STACK CFI bdd4 .cfa: $rsp 368 +
STACK CFI INIT 3bf6 18 $r12: .cfa -40 + ^ $r13: .cfa -32 + ^ $r14: .cfa -24 + ^ $r15: .cfa -16 + ^ $rbp: .cfa -48 + ^ $rbx: .cfa -56 + ^ .cfa: $rsp 368 + .ra: .cfa -8 + ^
STACK CFI INIT c460 2d3 .cfa: $rsp 8 + .ra: .cfa -8 + ^
STACK CFI c475 $r15: .cfa -16 + ^ .cfa: $rsp 16 +
STACK CFI c477 $r14: .cfa -24 + ^ .cfa: $rsp 24 +
STACK CFI c479 $r13: .cfa -32 + ^ .cfa: $rsp 32 +
STACK CFI c47b $r12: .cfa -40 + ^ .cfa: $rsp 40 +
STACK CFI c47c $rbp: .cfa -48 + ^ .cfa: $rsp 48 +
STACK CFI c480 $rbx: .cfa -56 + ^ .cfa: $rsp 56 +
STACK CFI c487 .cfa: $rsp 96 +
STACK CFI c4ce .cfa: $rsp 56 +
STACK CFI c4cf .cfa: $rsp 48 +
STACK CFI c4d0 .cfa: $rsp 40 +
STACK CFI c4d2 .cfa: $rsp 32 +
STACK CFI c4d4 .cfa: $rsp 24 +
STACK CFI c4d6 .cfa: $rsp 16 +
STACK CFI c4d8 .cfa: $rsp 8 +
STACK CFI c4e0 $r12: $r12 $r13: $r13 $r14: $r14 $r15: $r15 $rbp: $rbp $rbx: $rbx
STACK CFI c4e8 $r12: .cfa -40 + ^ $r13: .cfa -32 + ^ $r14: .cfa -24 + ^ $r15: .cfa -16 + ^ $rbp: .cfa -48 + ^ $rbx: .cfa -56 + ^ .cfa: $rsp 96 +
STACK CFI c57a .cfa: $rsp 56 +
STACK CFI c57b .cfa: $rsp 48 +
STACK CFI c57c .cfa: $rsp 40 +
STACK CFI c57e .cfa: $rsp 32 +
STACK CFI c580 .cfa: $rsp 24 +
STACK CFI c582 .cfa: $rsp 16 +
STACK CFI c584 .cfa: $rsp 8 +
STACK CFI c585 .cfa: $rsp 96 +
STACK CFI INIT c1a0 26d .cfa: $rsp 8 + .ra: .cfa -8 + ^
STACK CFI c1a6 $r15: .cfa -16 + ^ .cfa: $rsp 16 +
STACK CFI c1a8 $r14: .cfa -24 + ^ .cfa: $rsp 24 +
STACK CFI c1aa $r13: .cfa -32 + ^ .cfa: $rsp 32 +
STACK CFI c1ac $r12: .cfa -40 + ^ .cfa: $rsp 40 +
STACK CFI c1ad $rbp: .cfa -48 + ^ .cfa: $rsp 48 +
STACK CFI c1ae $rbx: .cfa -56 + ^ .cfa: $rsp 56 +
STACK CFI c1b5 .cfa: $rsp 288 +
STACK CFI c331 .cfa: $rsp 56 +
STACK CFI c332 .cfa: $rsp 48 +
STACK CFI c333 .cfa: $rsp 40 +
STACK CFI c335 .cfa: $rsp 32 +
STACK CFI c337 .cfa: $rsp 24 +
STACK CFI c339 .cfa: $rsp 16 +
STACK CFI c33b .cfa: $rsp 8 +
STACK CFI c340 .cfa: $rsp 288 +
STACK CFI INIT 3c0e 2c .cfa: $rsp 8 + .ra: .cfa -8 + ^
STACK CFI 3c0f $rbp: .cfa -16 + ^ .cfa: $rsp 16 +
STACK CFI 3c14 $rbx: .cfa -24 + ^ .cfa: $rsp 24 +
STACK CFI 3c18 .cfa: $rsp 32 +
STACK CFI 3c30 .cfa: $rsp 24 +
STACK CFI 3c34 .cfa: $rsp 16 +
STACK CFI 3c35 .cfa: $rsp 8 +
STACK CFI INIT c740 25 .cfa: $rsp 8 + .ra: .cfa -8 + ^
STACK CFI c741 .cfa: $rsp 16 +
STACK CFI c742 .cfa: $rsp 8 +
STACK CFI c760 .cfa: $rsp 16 +
STACK CFI INIT c770 25 .cfa: $rsp 8 + .ra: .cfa -8 + ^
STACK CFI c771 .cfa: $rsp 16 +
STACK CFI c772 .cfa: $rsp 8 +
STACK CFI c790 .cfa: $rsp 16 +
STACK CFI INIT c7a0 25 .cfa: $rsp 8 + .ra: .cfa -8 + ^
STACK CFI c7a1 .cfa: $rsp 16 +
STACK CFI c7a2 .cfa: $rsp 8 +
STACK CFI c7c0 .cfa: $rsp 16 +
STACK CFI INIT 3c3a 14 .cfa: $rsp 8 + .ra: .cfa -8 + ^
STACK CFI INIT c7d0 432 .cfa: $rsp 8 + .ra: .cfa -8 + ^
STACK CFI c7d2 $r15: .cfa -16 + ^ .cfa: $rsp 16 +
STACK CFI c7d7 $r14: .cfa -24 + ^ .cfa: $rsp 24 +
STACK CFI c7d9 $r13: .cfa -32 + ^ .cfa: $rsp 32 +
STACK CFI c7db $r12: .cfa -40 + ^ .cfa: $rsp 40 +
STACK CFI c7dc $rbp: .cfa -48 + ^ .cfa: $rsp 48 +
STACK CFI c7dd $rbx: .cfa -56 + ^ .cfa: $rsp 56 +
STACK CFI c7e1 .cfa: $rsp 144 +
STACK CFI c838 .cfa: $rsp 56 +
STACK CFI c83c .cfa: $rsp 48 +
STACK CFI c83d .cfa: $rsp 40 +
STACK CFI c83f .cfa: $rsp 32 +
STACK CFI c841 .cfa: $rsp 24 +
STACK CFI c843 .cfa: $rsp 16 +
STACK CFI c845 .cfa: $rsp 8 +
STACK CFI c850 .cfa: $rsp 144 +
STACK CFI INIT 3c4e 40 $r12: .cfa -40 + ^ $r13: .cfa -32 + ^ $r14: .cfa -24 + ^ $r15: .cfa -16 + ^ $rbp: .cfa -48 + ^ $rbx: .cfa -56 + ^ .cfa: $rsp 144 + .ra: .cfa -8 + ^
STACK CFI INIT cc10 3d8 .cfa: $rsp 8 + .ra: .cfa -8 + ^
STACK CFI cc12 $r15: .cfa -16 + ^ .cfa: $rsp 16 +
STACK CFI cc19 $r14: .cfa -24 + ^ .cfa: $rsp 24 +
STACK CFI cc1b $r13: .cfa -32 + ^ .cfa: $rsp 32 +
STACK CFI cc1d $r12: .cfa -40 + ^ .cfa: $rsp 40 +
STACK CFI cc24 $rbp: .cfa -48 + ^ .cfa: $rsp 48 +
STACK CFI cc2a $rbx: .cfa -56 + ^ .cfa: $rsp 56 +
STACK CFI cc34 .cfa: $rsp 784 +
STACK CFI ce4a .cfa: $rsp 56 +
STACK CFI ce4b .cfa: $rsp 48 +
STACK CFI ce4c .cfa: $rsp 40 +
STACK CFI ce4e .cfa: $rsp 32 +
STACK CFI ce50 .cfa: $rsp 24 +
STACK CFI ce52 .cfa: $rsp 16 +
STACK CFI ce54 .cfa: $rsp 8 +
STACK CFI ce58 .cfa: $rsp 784 +
STACK CFI INIT 3c8e 2d $r12: .cfa -40 + ^ $r13: .cfa -32 + ^ $r14: .cfa -24 + ^ $r15: .cfa -16 + ^ $rbp: .cfa -48 + ^ $rbx: .cfa -56 + ^ .cfa: $rsp 784 + .ra: .cfa -8 + ^
STACK CFI INIT cff0 2c4 .cfa: $rsp 8 + .ra: .cfa -8 + ^
STACK CFI cff2 $r15: .cfa -16 + ^ .cfa: $rsp 16 +
STACK CFI cff4 $r14: .cfa -24 + ^ .cfa: $rsp 24 +
STACK CFI cff6 $r13: .cfa -32 + ^ .cfa: $rsp 32 +
STACK CFI cff8 $r12: .cfa -40 + ^ .cfa: $rsp 40 +
STACK CFI cff9 $rbp: .cfa -48 + ^ .cfa: $rsp 48 +
STACK CFI cffa $rbx: .cfa -56 + ^ .cfa: $rsp 56 +
STACK CFI d001 .cfa: $rsp 112 +
STACK CFI d1db .cfa: $rsp 56 +
STACK CFI d1df .cfa: $rsp 48 +
STACK CFI d1e0 .cfa: $rsp 40 +
STACK CFI d1e2 .cfa: $rsp 32 +
STACK CFI d1e4 .cfa: $rsp 24 +
STACK CFI d1e6 .cfa: $rsp 16 +
STACK CFI d1e8 .cfa: $rsp 8 +
STACK CFI d1f0 .cfa: $rsp 112 +
STACK CFI d20c .cfa: $rsp 56 +
STACK CFI d20d .cfa: $rsp 48 +
STACK CFI d20e .cfa: $rsp 40 +
STACK CFI d210 .cfa: $rsp 32 +
STACK CFI d212 .cfa: $rsp 24 +
STACK CFI d214 .cfa: $rsp 16 +
STACK CFI d216 .cfa: $rsp 8 +
STACK CFI d21b .cfa: $rsp 112 +
STACK CFI INIT 10c10 230 .cfa: $rsp 8 + .ra: .cfa -8 + ^
STACK CFI 10c16 $r15: .cfa -16 + ^ .cfa: $rsp 16 +
STACK CFI 10c18 $r14: .cfa -24 + ^ .cfa: $rsp 24 +
STACK CFI 10c1d $r13: .cfa -32 + ^ .cfa: $rsp 32 +
STACK CFI 10c22 $r12: .cfa -40 + ^ .cfa: $rsp 40 +
STACK CFI 10c23 $rbp: .cfa -48 + ^ .cfa: $rsp 48 +
STACK CFI 10c24 $rbx: .cfa -56 + ^ .cfa: $rsp 56 +
STACK CFI 10c2c .cfa: $rsp 80 +
STACK CFI 10d94 .cfa: $rsp 56 +
STACK CFI 10d9a .cfa: $rsp 48 +
STACK CFI 10d9b .cfa: $rsp 40 +
STACK CFI 10d9d .cfa: $rsp 32 +
STACK CFI 10d9f .cfa: $rsp 24 +
STACK CFI 10da1 .cfa: $rsp 16 +
STACK CFI 10da3 .cfa: $rsp 8 +
STACK CFI 10da8 .cfa: $rsp 80 +
STACK CFI 10e14 .cfa: $rsp 56 +
STACK CFI 10e17 .cfa: $rsp 48 +
STACK CFI 10e18 .cfa: $rsp 40 +
STACK CFI 10e1a .cfa: $rsp 32 +
STACK CFI 10e1c .cfa: $rsp 24 +
STACK CFI 10e1e .cfa: $rsp 16 +
STACK CFI 10e20 .cfa: $rsp 8 +
STACK CFI 10e21 .cfa: $rsp 80 +
STACK CFI INIT 10e40 2c4 .cfa: $rsp 8 + .ra: .cfa -8 + ^
STACK CFI 10e46 $r15: .cfa -16 + ^ .cfa: $rsp 16 +
STACK CFI 10e48 $r14: .cfa -24 + ^ .cfa: $rsp 24 +
STACK CFI 10e4a $r13: .cfa -32 + ^ .cfa: $rsp 32 +
STACK CFI 10e4c $r12: .cfa -40 + ^ .cfa: $rsp 40 +
STACK CFI 10e4d $rbp: .cfa -48 + ^ .cfa: $rsp 48 +
STACK CFI 10e4e $rbx: .cfa -56 + ^ .cfa: $rsp 56 +
STACK CFI 10e52 .cfa: $rsp 128 +
STACK CFI 10f50 .cfa: $rsp 56 +
STACK CFI 10f51 .cfa: $rsp 48 +
STACK CFI 10f52 .cfa: $rsp 40 +
STACK CFI 10f54 .cfa: $rsp 32 +
STACK CFI 10f56 .cfa: $rsp 24 +
STACK CFI 10f58 .cfa: $rsp 16 +
STACK CFI 10f5a .cfa: $rsp 8 +
STACK CFI 10f60 .cfa: $rsp 128 +
STACK CFI INIT d2c0 e0d .cfa: $rsp 8 + .ra: .cfa -8 + ^
STACK CFI d2c2 $r15: .cfa -16 + ^ .cfa: $rsp 16 +
STACK CFI d2c4 $r14: .cfa -24 + ^ .cfa: $rsp 24 +
STACK CFI d2c6 $r13: .cfa -32 + ^ .cfa: $rsp 32 +
STACK CFI d2c8 $r12: .cfa -40 + ^ .cfa: $rsp 40 +
STACK CFI d2c9 $rbp: .cfa -48 + ^ .cfa: $rsp 48 +
STACK CFI d2ca $rbx: .cfa -56 + ^ .cfa: $rsp 56 +
STACK CFI d2d1 .cfa: $rsp 2384 +
STACK CFI d663 .cfa: $rsp 56 +
STACK CFI d664 .cfa: $rsp 48 +
STACK CFI d665 .cfa: $rsp 40 +
STACK CFI d667 .cfa: $rsp 32 +
STACK CFI d669 .cfa: $rsp 24 +
STACK CFI d66b .cfa: $rsp 16 +
STACK CFI d66d .cfa: $rsp 8 +
STACK CFI d670 .cfa: $rsp 2384 +
STACK CFI INIT 3cbc 6a $r12: .cfa -40 + ^ $r13: .cfa -32 + ^ $r14: .cfa -24 + ^ $r15: .cfa -16 + ^ $rbp: .cfa -48 + ^ $rbx: .cfa -56 + ^ .cfa: $rsp 2384 + .ra: .cfa -8 + ^
STACK CFI INIT 11110 25a .cfa: $rsp 8 + .ra: .cfa -8 + ^
STACK CFI 11125 $r15: .cfa -16 + ^ .cfa: $rsp 16 +
STACK CFI 11127 $r14: .cfa -24 + ^ .cfa: $rsp 24 +
STACK CFI 11129 $r13: .cfa -32 + ^ .cfa: $rsp 32 +
STACK CFI 1112b $r12: .cfa -40 + ^ .cfa: $rsp 40 +
STACK CFI 1112c $rbp: .cfa -48 + ^ .cfa: $rsp 48 +
STACK CFI 11130 $rbx: .cfa -56 + ^ .cfa: $rsp 56 +
STACK CFI 1113a .cfa: $rsp 80 +
STACK CFI 1116f .cfa: $rsp 56 +
STACK CFI 11170 .cfa: $rsp 48 +
STACK CFI 11171 .cfa: $rsp 40 +
STACK CFI 11173 .cfa: $rsp 32 +
STACK CFI 11175 .cfa: $rsp 24 +
STACK CFI 11177 .cfa: $rsp 16 +
STACK CFI 11179 .cfa: $rsp 8 +
STACK CFI 11180 $r12: $r12 $r13: $r13 $r14: $r14 $r15: $r15 $rbp: $rbp $rbx: $rbx
STACK CFI 11188 $r12: .cfa -40 + ^ $r13: .cfa -32 + ^ $r14: .cfa -24 + ^ $r15: .cfa -16 + ^ $rbp: .cfa -48 + ^ $rbx: .cfa -56 + ^ .cfa: $rsp 80 +
STACK CFI 11209 .cfa: $rsp 56 +
STACK CFI 1120a .cfa: $rsp 48 +
STACK CFI 1120b .cfa: $rsp 40 +
STACK CFI 1120d .cfa: $rsp 32 +
STACK CFI 1120f .cfa: $rsp 24 +
STACK CFI 11211 .cfa: $rsp 16 +
STACK CFI 11213 .cfa: $rsp 8 +
STACK CFI 11218 .cfa: $rsp 80 +
STACK CFI INIT e0d0 1ce6 .cfa: $rsp 8 + .ra: .cfa -8 + ^
STACK CFI e0d2 $r15: .cfa -16 + ^ .cfa: $rsp 16 +
STACK CFI e0dd $r14: .cfa -24 + ^ .cfa: $rsp 24 +
STACK CFI e0e2 $r13: .cfa -32 + ^ .cfa: $rsp 32 +
STACK CFI e0e4 $r12: .cfa -40 + ^ .cfa: $rsp 40 +
STACK CFI e0e5 $rbp: .cfa -48 + ^ .cfa: $rsp 48 +
STACK CFI e0e6 $rbx: .cfa -56 + ^ .cfa: $rsp 56 +
STACK CFI e0f1 .cfa: $rsp 1536 +
STACK CFI e1e7 .cfa: $rsp 56 +
STACK CFI e1eb .cfa: $rsp 48 +
STACK CFI e1ec .cfa: $rsp 40 +
STACK CFI e1ee .cfa: $rsp 32 +
STACK CFI e1f0 .cfa: $rsp 24 +
STACK CFI e1f2 .cfa: $rsp 16 +
STACK CFI e1f4 .cfa: $rsp 8 +
STACK CFI e1f8 .cfa: $rsp 1536 +
STACK CFI INIT 3d26 1b6 $r12: .cfa -40 + ^ $r13: .cfa -32 + ^ $r14: .cfa -24 + ^ $r15: .cfa -16 + ^ $rbp: .cfa -48 + ^ $rbx: .cfa -56 + ^ .cfa: $rsp 1536 + .ra: .cfa -8 + ^
STACK CFI INIT fdc0 318 .cfa: $rsp 8 + .ra: .cfa -8 + ^
STACK CFI fdc6 $r15: .cfa -16 + ^ .cfa: $rsp 16 +
STACK CFI fdcb $r14: .cfa -24 + ^ .cfa: $rsp 24 +
STACK CFI fdcd $r13: .cfa -32 + ^ .cfa: $rsp 32 +
STACK CFI fdcf $r12: .cfa -40 + ^ .cfa: $rsp 40 +
STACK CFI fdd0 $rbp: .cfa -48 + ^ .cfa: $rsp 48 +
STACK CFI fdd1 $rbx: .cfa -56 + ^ .cfa: $rsp 56 +
STACK CFI fddb .cfa: $rsp 272 +
STACK CFI 10031 .cfa: $rsp 56 +
STACK CFI 10035 .cfa: $rsp 48 +
STACK CFI 10036 .cfa: $rsp 40 +
STACK CFI 10038 .cfa: $rsp 32 +
STACK CFI 1003a .cfa: $rsp 24 +
STACK CFI 1003c .cfa: $rsp 16 +
STACK CFI 1003e .cfa: $rsp 8 +
STACK CFI 10040 .cfa: $rsp 272 +
STACK CFI INIT 3edc 10 $r12: .cfa -40 + ^ $r13: .cfa -32 + ^ $r14: .cfa -24 + ^ $r15: .cfa -16 + ^ $rbp: .cfa -48 + ^ $rbx: .cfa -56 + ^ .cfa: $rsp 272 + .ra: .cfa -8 + ^
STACK CFI INIT 100e0 418 .cfa: $rsp 8 + .ra: .cfa -8 + ^
STACK CFI 100e2 $r15: .cfa -16 + ^ .cfa: $rsp 16 +
STACK CFI 100e4 $r14: .cfa -24 + ^ .cfa: $rsp 24 +
STACK CFI 100eb $r13: .cfa -32 + ^ .cfa: $rsp 32 +
STACK CFI 100f0 $r12: .cfa -40 + ^ .cfa: $rsp 40 +
STACK CFI 100f4 $rbp: .cfa -48 + ^ .cfa: $rsp 48 +
STACK CFI 100f5 $rbx: .cfa -56 + ^ .cfa: $rsp 56 +
STACK CFI 100ff .cfa: $rsp 560 +
STACK CFI 101a5 .cfa: $rsp 56 +
STACK CFI 101a9 .cfa: $rsp 48 +
STACK CFI 101aa .cfa: $rsp 40 +
STACK CFI 101ac .cfa: $rsp 32 +
STACK CFI 101ae .cfa: $rsp 24 +
STACK CFI 101b0 .cfa: $rsp 16 +
STACK CFI 101b2 .cfa: $rsp 8 +
STACK CFI 101b8 .cfa: $rsp 560 +
STACK CFI INIT 3eec 2e $r12: .cfa -40 + ^ $r13: .cfa -32 + ^ $r14: .cfa -24 + ^ $r15: .cfa -16 + ^ $rbp: .cfa -48 + ^ $rbx: .cfa -56 + ^ .cfa: $rsp 560 + .ra: .cfa -8 + ^
STACK CFI INIT 10500 3a .cfa: $rsp 8 + .ra: .cfa -8 + ^
STACK CFI 10508 .cfa: $rsp 24 +
STACK CFI 1050e .cfa: $rsp 32 +
STACK CFI 10512 .cfa: $rsp 40 +
STACK CFI 10518 .cfa: $rsp 48 +
STACK CFI 1051a .cfa: $rsp 56 +
STACK CFI 10526 .cfa: $rsp 64 +
STACK CFI 10539 .cfa: $rsp 8 +
STACK CFI INIT 10540 39 .cfa: $rsp 8 + .ra: .cfa -8 + ^
STACK CFI 10548 .cfa: $rsp 24 +
STACK CFI 1054e .cfa: $rsp 32 +
STACK CFI 10552 .cfa: $rsp 40 +
STACK CFI 10558 .cfa: $rsp 48 +
STACK CFI 1055a .cfa: $rsp 56 +
STACK CFI 10563 .cfa: $rsp 64 +
STACK CFI 10578 .cfa: $rsp 8 +
STACK CFI INIT 10580 38 .cfa: $rsp 8 + .ra: .cfa -8 + ^
STACK CFI 10588 .cfa: $rsp 24 +
STACK CFI 1058e .cfa: $rsp 32 +
STACK CFI 10592 .cfa: $rsp 40 +
STACK CFI 10598 .cfa: $rsp 48 +
STACK CFI 1059c .cfa: $rsp 56 +
STACK CFI 1059e .cfa: $rsp 64 +
STACK CFI 105b7 .cfa: $rsp 8 +
STACK CFI INIT 105c0 3b .cfa: $rsp 8 + .ra: .cfa -8 + ^
STACK CFI 105c6 $r12: .cfa -16 + ^ .cfa: $rsp 16 +
STACK CFI 105ca .cfa: $rsp 24 +
STACK CFI 105d0 .cfa: $rsp 32 +
STACK CFI 105d4 .cfa: $rsp 40 +
STACK CFI 105da .cfa: $rsp 48 +
STACK CFI 105de .cfa: $rsp 56 +
STACK CFI 105e0 .cfa: $rsp 64 +
STACK CFI 105f8 .cfa: $rsp 16 +
STACK CFI 105fa .cfa: $rsp 8 +
STACK CFI INIT 11370 34 .cfa: $rsp 8 + .ra: .cfa -8 + ^
STACK CFI 11375 $rbp: .cfa -16 + ^ .cfa: $rsp 16 +
STACK CFI 11376 $rbx: .cfa -24 + ^ .cfa: $rsp 24 +
STACK CFI 1137a .cfa: $rsp 32 +
STACK CFI 113a1 .cfa: $rsp 24 +
STACK CFI 113a2 .cfa: $rsp 16 +
STACK CFI 113a3 .cfa: $rsp 8 +
STACK CFI INIT 113b0 34 .cfa: $rsp 8 + .ra: .cfa -8 + ^
STACK CFI 113b5 $rbp: .cfa -16 + ^ .cfa: $rsp 16 +
STACK CFI 113b6 $rbx: .cfa -24 + ^ .cfa: $rsp 24 +
STACK CFI 113ba .cfa: $rsp 32 +
STACK CFI 113e1 .cfa: $rsp 24 +
STACK CFI 113e2 .cfa: $rsp 16 +
STACK CFI 113e3 .cfa: $rsp 8 +
STACK CFI INIT 10600 f5 .cfa: $rsp 8 + .ra: .cfa -8 + ^
STACK CFI 10605 $rbp: .cfa -16 + ^ .cfa: $rsp 16 +
STACK CFI 1060f .cfa: $rbp 16 +
STACK CFI 10617 $r13: .cfa -32 + ^ $r14: .cfa -24 + ^
STACK CFI 10625 $r12: .cfa -40 + ^ $rbx: .cfa -48 + ^
STACK CFI 106e3 .cfa: $rsp 8 +
STACK CFI 106e4 .cfa: $rbp 16 +
STACK CFI INIT 3f1a 18 $r12: .cfa -40 + ^ $r13: .cfa -32 + ^ $r14: .cfa -24 + ^ $rbp: .cfa -16 + ^ $rbx: .cfa -48 + ^ .cfa: $rbp 16 + .ra: .cfa -8 + ^
STACK CFI INIT 10700 f5 .cfa: $rsp 8 + .ra: .cfa -8 + ^
STACK CFI 10705 $rbp: .cfa -16 + ^ .cfa: $rsp 16 +
STACK CFI 1070f .cfa: $rbp 16 +
STACK CFI 10717 $r13: .cfa -32 + ^ $r14: .cfa -24 + ^
STACK CFI 10725 $r12: .cfa -40 + ^ $rbx: .cfa -48 + ^
STACK CFI 107e3 .cfa: $rsp 8 +
STACK CFI 107e4 .cfa: $rbp 16 +
STACK CFI INIT 3f32 18 $r12: .cfa -40 + ^ $r13: .cfa -32 + ^ $r14: .cfa -24 + ^ $rbp: .cfa -16 + ^ $rbx: .cfa -48 + ^ .cfa: $rbp 16 + .ra: .cfa -8 + ^
STACK CFI INIT 10800 406 .cfa: $rsp 8 + .ra: .cfa -8 + ^
STACK CFI 10806 $r15: .cfa -16 + ^ .cfa: $rsp 16 +
STACK CFI 1080b $r14: .cfa -24 + ^ .cfa: $rsp 24 +
STACK CFI 1080d $r13: .cfa -32 + ^ .cfa: $rsp 32 +
STACK CFI 1080f $r12: .cfa -40 + ^ .cfa: $rsp 40 +
STACK CFI 10810 $rbp: .cfa -48 + ^ .cfa: $rsp 48 +
STACK CFI 10811 $rbx: .cfa -56 + ^ .cfa: $rsp 56 +
STACK CFI 1081a .cfa: $rsp 608 +
STACK CFI 10b4e .cfa: $rsp 56 +
STACK CFI 10b52 .cfa: $rsp 48 +
STACK CFI 10b53 .cfa: $rsp 40 +
STACK CFI 10b55 .cfa: $rsp 32 +
STACK CFI 10b57 .cfa: $rsp 24 +
STACK CFI 10b59 .cfa: $rsp 16 +
STACK CFI 10b5b .cfa: $rsp 8 +
STACK CFI 10b60 .cfa: $rsp 608 +
STACK CFI INIT 3f4a 3b $r12: .cfa -40 + ^ $r13: .cfa -32 + ^ $r14: .cfa -24 + ^ $r15: .cfa -16 + ^ $rbp: .cfa -48 + ^ $rbx: .cfa -56 + ^ .cfa: $rsp 608 + .ra: .cfa -8 + ^
STACK CFI INIT 113f0 1e6 .cfa: $rsp 8 + .ra: .cfa -8 + ^
STACK CFI 113f6 $r13: .cfa -16 + ^ .cfa: $rsp 16 +
STACK CFI 113fa $r12: .cfa -24 + ^ .cfa: $rsp 24 +
STACK CFI 113fb $rbp: .cfa -32 + ^ .cfa: $rsp 32 +
STACK CFI 113fc $rbx: .cfa -40 + ^ .cfa: $rsp 40 +
STACK CFI 11406 .cfa: $rsp 80 +
STACK CFI 11463 .cfa: $rsp 40 +
STACK CFI 11467 .cfa: $rsp 32 +
STACK CFI 11468 .cfa: $rsp 24 +
STACK CFI 1146a .cfa: $rsp 16 +
STACK CFI 1146c .cfa: $rsp 8 +
STACK CFI 11470 .cfa: $rsp 80 +
STACK CFI INIT 115e0 25 .cfa: $rsp 8 + .ra: .cfa -8 + ^
STACK CFI 115e1 .cfa: $rsp 16 +
STACK CFI 115e2 .cfa: $rsp 8 +
STACK CFI 11600 .cfa: $rsp 16 +
STACK CFI INIT 11610 25 .cfa: $rsp 8 + .ra: .cfa -8 + ^
STACK CFI 11611 .cfa: $rsp 16 +
STACK CFI 11612 .cfa: $rsp 8 +
STACK CFI 11630 .cfa: $rsp 16 +
STACK CFI INIT 11640 1e .cfa: $rsp 8 + .ra: .cfa -8 + ^
STACK CFI INIT 11660 83 .cfa: $rsp 8 + .ra: .cfa -8 + ^
STACK CFI 11666 $r12: .cfa -16 + ^ .cfa: $rsp 16 +
STACK CFI 11667 $rbp: .cfa -24 + ^ .cfa: $rsp 24 +
STACK CFI 1166b $rbx: .cfa -32 + ^ .cfa: $rsp 32 +
STACK CFI 1169c .cfa: $rsp 24 +
STACK CFI 116a4 .cfa: $rsp 16 +
STACK CFI 116a6 .cfa: $rsp 8 +
STACK CFI 116b0 .cfa: $rsp 32 +
STACK CFI 116bc .cfa: $rsp 24 +
STACK CFI 116c1 .cfa: $rsp 16 +
STACK CFI 116c3 .cfa: $rsp 8 +
STACK CFI 116c4 .cfa: $rsp 32 +
STACK CFI INIT 116f0 30 .cfa: $rsp 8 + .ra: .cfa -8 + ^
STACK CFI 11701 .cfa: $rsp 16 +
STACK CFI INIT 11720 6b .cfa: $rsp 8 + .ra: .cfa -8 + ^
STACK CFI 11726 $r12: .cfa -16 + ^ .cfa: $rsp 16 +
STACK CFI 1172d $rbp: .cfa -24 + ^ .cfa: $rsp 24 +
STACK CFI 1172e $rbx: .cfa -32 + ^ .cfa: $rsp 32 +
STACK CFI 1173c .cfa: $rsp 24 +
STACK CFI 1173d .cfa: $rsp 16 +
STACK CFI 1173f .cfa: $rsp 8 +
STACK CFI 11740 .cfa: $rsp 32 +
STACK CFI 11774 .cfa: $rsp 24 +
STACK CFI 11775 .cfa: $rsp 16 +
STACK CFI 11777 .cfa: $rsp 8 +
STACK CFI 11780 .cfa: $rsp 32 +
STACK CFI INIT 11790 1e .cfa: $rsp 8 + .ra: .cfa -8 + ^
STACK CFI 117a4 .cfa: $rsp 16 +
STACK CFI 117ad .cfa: $rsp 8 +
STACK CFI INIT 117b0 c0 .cfa: $rsp 8 + .ra: .cfa -8 + ^
STACK CFI 117b6 $r13: .cfa -16 + ^ .cfa: $rsp 16 +
STACK CFI 117b8 $r12: .cfa -24 + ^ .cfa: $rsp 24 +
STACK CFI 117b9 $rbp: .cfa -32 + ^ .cfa: $rsp 32 +
STACK CFI 117ba $rbx: .cfa -40 + ^ .cfa: $rsp 40 +
STACK CFI 117be .cfa: $rsp 48 +
STACK CFI 117f6 .cfa: $rsp 40 +
STACK CFI 117f7 .cfa: $rsp 32 +
STACK CFI 117f8 .cfa: $rsp 24 +
STACK CFI 117fa .cfa: $rsp 16 +
STACK CFI 117fc .cfa: $rsp 8 +
STACK CFI 11800 .cfa: $rsp 48 +
STACK CFI INIT 11870 10a .cfa: $rsp 8 + .ra: .cfa -8 + ^
STACK CFI 11875 $rbp: .cfa -16 + ^ .cfa: $rsp 16 +
STACK CFI 11876 $rbx: .cfa -24 + ^ .cfa: $rsp 24 +
STACK CFI 1187a .cfa: $rsp 32 +
STACK CFI 118cc .cfa: $rsp 24 +
STACK CFI 118cf .cfa: $rsp 16 +
STACK CFI 118d0 .cfa: $rsp 8 +
STACK CFI 118d8 .cfa: $rsp 32 +
STACK CFI 118fd .cfa: $rsp 24 +
STACK CFI 118fe .cfa: $rsp 16 +
STACK CFI 118ff .cfa: $rsp 8 +
STACK CFI 11900 .cfa: $rsp 32 +
STACK CFI INIT 11980 f2 .cfa: $rsp 8 + .ra: .cfa -8 + ^
STACK CFI 11986 $r15: .cfa -16 + ^ .cfa: $rsp 16 +
STACK CFI 11988 $r14: .cfa -24 + ^ .cfa: $rsp 24 +
STACK CFI 1198a $r13: .cfa -32 + ^ .cfa: $rsp 32 +
STACK CFI 1198c $r12: .cfa -40 + ^ .cfa: $rsp 40 +
STACK CFI 1198d $rbp: .cfa -48 + ^ .cfa: $rsp 48 +
STACK CFI 1198e $rbx: .cfa -56 + ^ .cfa: $rsp 56 +
STACK CFI 11992 .cfa: $rsp 80 +
STACK CFI 11a3c .cfa: $rsp 56 +
STACK CFI 11a3d .cfa: $rsp 48 +
STACK CFI 11a3e .cfa: $rsp 40 +
STACK CFI 11a40 .cfa: $rsp 32 +
STACK CFI 11a42 .cfa: $rsp 24 +
STACK CFI 11a44 .cfa: $rsp 16 +
STACK CFI 11a46 .cfa: $rsp 8 +
STACK CFI 11a47 .cfa: $rsp 80 +
STACK CFI INIT 11a80 ef .cfa: $rsp 8 + .ra: .cfa -8 + ^
STACK CFI 11a86 $r15: .cfa -16 + ^ .cfa: $rsp 16 +
STACK CFI 11a88 $r14: .cfa -24 + ^ .cfa: $rsp 24 +
STACK CFI 11a8a $r13: .cfa -32 + ^ .cfa: $rsp 32 +
STACK CFI 11a8c $r12: .cfa -40 + ^ .cfa: $rsp 40 +
STACK CFI 11a8d $rbp: .cfa -48 + ^ .cfa: $rsp 48 +
STACK CFI 11a8e $rbx: .cfa -56 + ^ .cfa: $rsp 56 +
STACK CFI 11a92 .cfa: $rsp 80 +
STACK CFI 11b39 .cfa: $rsp 56 +
STACK CFI 11b3a .cfa: $rsp 48 +
STACK CFI 11b3b .cfa: $rsp 40 +
STACK CFI 11b3d .cfa: $rsp 32 +
STACK CFI 11b3f .cfa: $rsp 24 +
STACK CFI 11b41 .cfa: $rsp 16 +
STACK CFI 11b43 .cfa: $rsp 8 +
STACK CFI 11b44 .cfa: $rsp 80 +
STACK CFI INIT 11b70 45 .cfa: $rsp 8 + .ra: .cfa -8 + ^
STACK CFI 11b75 $rbx: .cfa -16 + ^ .cfa: $rsp 16 +
STACK CFI 11b92 .cfa: $rsp 8 +
STACK CFI 11b96 .cfa: $rsp 16 +
STACK CFI INIT 11bc0 8d .cfa: $rsp 8 + .ra: .cfa -8 + ^
STACK CFI 11bc8 .cfa: $rsp 16 +
STACK CFI 11beb .cfa: $rsp 8 +
STACK CFI 11bf0 .cfa: $rsp 16 +
STACK CFI INIT 11c50 e7 .cfa: $rsp 8 + .ra: .cfa -8 + ^
STACK CFI 11c56 $r12: .cfa -16 + ^ .cfa: $rsp 16 +
STACK CFI 11c57 $rbp: .cfa -24 + ^ .cfa: $rsp 24 +
STACK CFI 11c5b $rbx: .cfa -32 + ^ .cfa: $rsp 32 +
STACK CFI 11c5f .cfa: $rsp 64 +
STACK CFI 11cbc .cfa: $rsp 32 +
STACK CFI 11cbd .cfa: $rsp 24 +
STACK CFI 11cbe .cfa: $rsp 16 +
STACK CFI 11cc0 .cfa: $rsp 8 +
STACK CFI 11cc8 .cfa: $rsp 64 +
STACK CFI INIT 11d60 203 .cfa: $rsp 8 + .ra: .cfa -8 + ^
STACK CFI 11d66 $r15: .cfa -16 + ^ .cfa: $rsp 16 +
STACK CFI 11d68 $r14: .cfa -24 + ^ .cfa: $rsp 24 +
STACK CFI 11d6a $r13: .cfa -32 + ^ .cfa: $rsp 32 +
STACK CFI 11d6c $r12: .cfa -40 + ^ .cfa: $rsp 40 +
STACK CFI 11d6d $rbp: .cfa -48 + ^ .cfa: $rsp 48 +
STACK CFI 11d6e $rbx: .cfa -56 + ^ .cfa: $rsp 56 +
STACK CFI 11d72 .cfa: $rsp 128 +
STACK CFI 11e5a .cfa: $rsp 56 +
STACK CFI 11e5e .cfa: $rsp 48 +
STACK CFI 11e5f .cfa: $rsp 40 +
STACK CFI 11e61 .cfa: $rsp 32 +
STACK CFI 11e63 .cfa: $rsp 24 +
STACK CFI 11e65 .cfa: $rsp 16 +
STACK CFI 11e67 .cfa: $rsp 8 +
STACK CFI 11e70 .cfa: $rsp 128 +
STACK CFI INIT 11d40 9 .cfa: $rsp 8 + .ra: .cfa -8 + ^
STACK CFI INIT 11f70 203 .cfa: $rsp 8 + .ra: .cfa -8 + ^
STACK CFI 11f76 $r15: .cfa -16 + ^ .cfa: $rsp 16 +
STACK CFI 11f78 $r14: .cfa -24 + ^ .cfa: $rsp 24 +
STACK CFI 11f7a $r13: .cfa -32 + ^ .cfa: $rsp 32 +
STACK CFI 11f7c $r12: .cfa -40 + ^ .cfa: $rsp 40 +
STACK CFI 11f7d $rbp: .cfa -48 + ^ .cfa: $rsp 48 +
STACK CFI 11f7e $rbx: .cfa -56 + ^ .cfa: $rsp 56 +
STACK CFI 11f82 .cfa: $rsp 128 +
STACK CFI 12069 .cfa: $rsp 56 +
STACK CFI 1206d .cfa: $rsp 48 +
STACK CFI 1206e .cfa: $rsp 40 +
STACK CFI 12070 .cfa: $rsp 32 +
STACK CFI 12072 .cfa: $rsp 24 +
STACK CFI 12074 .cfa: $rsp 16 +
STACK CFI 12076 .cfa: $rsp 8 +
STACK CFI 12080 .cfa: $rsp 128 +
STACK CFI INIT 11d50 9 .cfa: $rsp 8 + .ra: .cfa -8 + ^
STACK CFI INIT 12180 a9 .cfa: $rsp 8 + .ra: .cfa -8 + ^
STACK CFI 12186 $r15: .cfa -16 + ^ .cfa: $rsp 16 +
STACK CFI 1218c $r14: .cfa -24 + ^ .cfa: $rsp 24 +
STACK CFI 1218e $r13: .cfa -32 + ^ .cfa: $rsp 32 +
STACK CFI 12190 $r12: .cfa -40 + ^ .cfa: $rsp 40 +
STACK CFI 12194 $rbp: .cfa -48 + ^ .cfa: $rsp 48 +
STACK CFI 12198 $rbx: .cfa -56 + ^ .cfa: $rsp 56 +
STACK CFI 121a0 .cfa: $rsp 96 +
STACK CFI 12215 .cfa: $rsp 56 +
STACK CFI 12216 .cfa: $rsp 48 +
STACK CFI 12217 .cfa: $rsp 40 +
STACK CFI 12219 .cfa: $rsp 32 +
STACK CFI 1221b .cfa: $rsp 24 +
STACK CFI 1221d .cfa: $rsp 16 +
STACK CFI 1221f .cfa: $rsp 8 +
STACK CFI 12220 .cfa: $rsp 96 +
STACK CFI INIT 12230 75 .cfa: $rsp 8 + .ra: .cfa -8 + ^
STACK CFI 12235 $rbx: .cfa -16 + ^ .cfa: $rsp 16 +
STACK CFI 12243 .cfa: $rsp 64 +
STACK CFI 1229e .cfa: $rsp 16 +
STACK CFI 1229f .cfa: $rsp 8 +
STACK CFI 122a0 .cfa: $rsp 64 +
STACK CFI INIT 122b0 1d9 .cfa: $rsp 8 + .ra: .cfa -8 + ^
STACK CFI 122b6 $r15: .cfa -16 + ^ .cfa: $rsp 16 +
STACK CFI 122b8 $r14: .cfa -24 + ^ .cfa: $rsp 24 +
STACK CFI 122ba $r13: .cfa -32 + ^ .cfa: $rsp 32 +
STACK CFI 122bc $r12: .cfa -40 + ^ .cfa: $rsp 40 +
STACK CFI 122c0 $rbp: .cfa -48 + ^ .cfa: $rsp 48 +
STACK CFI 122c1 $rbx: .cfa -56 + ^ .cfa: $rsp 56 +
STACK CFI 122c5 .cfa: $rsp 96 +
STACK CFI 123f8 .cfa: $rsp 56 +
STACK CFI 123fc .cfa: $rsp 48 +
STACK CFI 123fd .cfa: $rsp 40 +
STACK CFI 123ff .cfa: $rsp 32 +
STACK CFI 12401 .cfa: $rsp 24 +
STACK CFI 12403 .cfa: $rsp 16 +
STACK CFI 12405 .cfa: $rsp 8 +
STACK CFI 12410 .cfa: $rsp 96 +
STACK CFI INIT 3f85 22 $r12: .cfa -40 + ^ $r13: .cfa -32 + ^ $r14: .cfa -24 + ^ $r15: .cfa -16 + ^ $rbp: .cfa -48 + ^ $rbx: .cfa -56 + ^ .cfa: $rsp 96 + .ra: .cfa -8 + ^
STACK CFI INIT 12690 2e2 .cfa: $rsp 8 + .ra: .cfa -8 + ^
STACK CFI 1269f $r15: .cfa -16 + ^ .cfa: $rsp 16 +
STACK CFI 126a1 $r14: .cfa -24 + ^ .cfa: $rsp 24 +
STACK CFI 126a3 $r13: .cfa -32 + ^ .cfa: $rsp 32 +
STACK CFI 126a8 $r12: .cfa -40 + ^ .cfa: $rsp 40 +
STACK CFI 126ac $rbp: .cfa -48 + ^ .cfa: $rsp 48 +
STACK CFI 126b0 $rbx: .cfa -56 + ^ .cfa: $rsp 56 +
STACK CFI 126b4 .cfa: $rsp 80 +
STACK CFI 12751 .cfa: $rsp 56 +
STACK CFI 12752 .cfa: $rsp 48 +
STACK CFI 12753 .cfa: $rsp 40 +
STACK CFI 12755 .cfa: $rsp 32 +
STACK CFI 12757 .cfa: $rsp 24 +
STACK CFI 12759 .cfa: $rsp 16 +
STACK CFI 1275b .cfa: $rsp 8 +
STACK CFI 12760 $r12: $r12 $r13: $r13 $r14: $r14 $r15: $r15 $rbp: $rbp $rbx: $rbx
STACK CFI 12768 $r12: .cfa -40 + ^ $r13: .cfa -32 + ^ $r14: .cfa -24 + ^ $r15: .cfa -16 + ^ $rbp: .cfa -48 + ^ $rbx: .cfa -56 + ^ .cfa: $rsp 80 +
STACK CFI 127c1 .cfa: $rsp 56 +
STACK CFI 127c2 .cfa: $rsp 48 +
STACK CFI 127c3 .cfa: $rsp 40 +
STACK CFI 127c5 .cfa: $rsp 32 +
STACK CFI 127c7 .cfa: $rsp 24 +
STACK CFI 127c9 .cfa: $rsp 16 +
STACK CFI 127cb .cfa: $rsp 8 +
STACK CFI 127d0 .cfa: $rsp 80 +
STACK CFI 128aa .cfa: $rsp 56 +
STACK CFI 128ab .cfa: $rsp 48 +
STACK CFI 128ac .cfa: $rsp 40 +
STACK CFI 128ae .cfa: $rsp 32 +
STACK CFI 128b0 .cfa: $rsp 24 +
STACK CFI 128b2 .cfa: $rsp 16 +
STACK CFI 128b4 .cfa: $rsp 8 +
STACK CFI 128b8 .cfa: $rsp 80 +
STACK CFI INIT 12980 1c6 .cfa: $rsp 8 + .ra: .cfa -8 + ^
STACK CFI 12999 $r15: .cfa -16 + ^ .cfa: $rsp 16 +
STACK CFI 1299b $r14: .cfa -24 + ^ .cfa: $rsp 24 +
STACK CFI 1299d $r13: .cfa -32 + ^ .cfa: $rsp 32 +
STACK CFI 1299f $r12: .cfa -40 + ^ .cfa: $rsp 40 +
STACK CFI 129a3 $rbp: .cfa -48 + ^ .cfa: $rsp 48 +
STACK CFI 129a4 $rbx: .cfa -56 + ^ .cfa: $rsp 56 +
STACK CFI 129ab .cfa: $rsp 80 +
STACK CFI 12a61 .cfa: $rsp 56 +
STACK CFI 12a62 .cfa: $rsp 48 +
STACK CFI 12a63 .cfa: $rsp 40 +
STACK CFI 12a65 .cfa: $rsp 32 +
STACK CFI 12a67 .cfa: $rsp 24 +
STACK CFI 12a69 .cfa: $rsp 16 +
STACK CFI 12a6b .cfa: $rsp 8 +
STACK CFI 12a70 .cfa: $rsp 80 +
STACK CFI 12aa6 .cfa: $rsp 56 +
STACK CFI 12aa7 .cfa: $rsp 48 +
STACK CFI 12aa8 .cfa: $rsp 40 +
STACK CFI 12aaa .cfa: $rsp 32 +
STACK CFI 12aac .cfa: $rsp 24 +
STACK CFI 12aae .cfa: $rsp 16 +
STACK CFI 12ab0 .cfa: $rsp 8 +
STACK CFI 12ab8 $r12: $r12 $r13: $r13 $r14: $r14 $r15: $r15 $rbp: $rbp $rbx: $rbx
STACK CFI 12ac0 $r12: .cfa -40 + ^ $r13: .cfa -32 + ^ $r14: .cfa -24 + ^ $r15: .cfa -16 + ^ $rbp: .cfa -48 + ^ $rbx: .cfa -56 + ^ .cfa: $rsp 80 +
STACK CFI INIT 12490 fc .cfa: $rsp 8 + .ra: .cfa -8 + ^
STACK CFI 12496 $r13: .cfa -16 + ^ .cfa: $rsp 16 +
STACK CFI 12498 $r12: .cfa -24 + ^ .cfa: $rsp 24 +
STACK CFI 12499 $rbp: .cfa -32 + ^ .cfa: $rsp 32 +
STACK CFI 1249d $rbx: .cfa -40 + ^ .cfa: $rsp 40 +
STACK CFI 124a4 .cfa: $rsp 80 +
STACK CFI 12555 .cfa: $rsp 40 +
STACK CFI 12556 .cfa: $rsp 32 +
STACK CFI 12557 .cfa: $rsp 24 +
STACK CFI 12559 .cfa: $rsp 16 +
STACK CFI 1255b .cfa: $rsp 8 +
STACK CFI 12560 .cfa: $rsp 80 +
STACK CFI INIT 12590 fc .cfa: $rsp 8 + .ra: .cfa -8 + ^
STACK CFI 12596 $r13: .cfa -16 + ^ .cfa: $rsp 16 +
STACK CFI 12598 $r12: .cfa -24 + ^ .cfa: $rsp 24 +
STACK CFI 1259c $rbp: .cfa -32 + ^ .cfa: $rsp 32 +
STACK CFI 125a3 .cfa: $rsp 64 +
STACK CFI 12653 .cfa: $rsp 32 +
STACK CFI 12654 .cfa: $rsp 24 +
STACK CFI 12656 .cfa: $rsp 16 +
STACK CFI 12658 .cfa: $rsp 8 +
STACK CFI 12660 .cfa: $rsp 64 +
STACK CFI INIT 12b50 23 .cfa: $rsp 8 + .ra: .cfa -8 + ^
STACK CFI 12b58 .cfa: $rsp 16 +
STACK CFI 12b72 .cfa: $rsp 8 +
STACK CFI INIT 12b80 9 .cfa: $rsp 8 + .ra: .cfa -8 + ^
STACK CFI INIT 12b90 478 .cfa: $rsp 8 + .ra: .cfa -8 + ^
STACK CFI 12b96 $r15: .cfa -16 + ^ .cfa: $rsp 16 +
STACK CFI 12b98 $r14: .cfa -24 + ^ .cfa: $rsp 24 +
STACK CFI 12b9a $r13: .cfa -32 + ^ .cfa: $rsp 32 +
STACK CFI 12b9c $r12: .cfa -40 + ^ .cfa: $rsp 40 +
STACK CFI 12b9d $rbp: .cfa -48 + ^ .cfa: $rsp 48 +
STACK CFI 12b9e $rbx: .cfa -56 + ^ .cfa: $rsp 56 +
STACK CFI 12ba2 .cfa: $rsp 112 +
STACK CFI 12bef .cfa: $rsp 56 +
STACK CFI 12bf3 .cfa: $rsp 48 +
STACK CFI 12bf4 .cfa: $rsp 40 +
STACK CFI 12bf6 .cfa: $rsp 32 +
STACK CFI 12bf8 .cfa: $rsp 24 +
STACK CFI 12bfa .cfa: $rsp 16 +
STACK CFI 12bfc .cfa: $rsp 8 +
STACK CFI 12c00 .cfa: $rsp 112 +
STACK CFI INIT 13010 155 .cfa: $rsp 8 + .ra: .cfa -8 + ^
STACK CFI 13016 $r13: .cfa -16 + ^ .cfa: $rsp 16 +
STACK CFI 1301b $r12: .cfa -24 + ^ .cfa: $rsp 24 +
STACK CFI 1301c $rbp: .cfa -32 + ^ .cfa: $rsp 32 +
STACK CFI 13020 $rbx: .cfa -40 + ^ .cfa: $rsp 40 +
STACK CFI 13027 .cfa: $rsp 96 +
STACK CFI 1305b .cfa: $rsp 40 +
STACK CFI 1305f .cfa: $rsp 32 +
STACK CFI 13060 .cfa: $rsp 24 +
STACK CFI 13062 .cfa: $rsp 16 +
STACK CFI 13064 .cfa: $rsp 8 +
STACK CFI 13068 .cfa: $rsp 96 +
STACK CFI INIT 13420 2c4 .cfa: $rsp 8 + .ra: .cfa -8 + ^
STACK CFI 13426 $r15: .cfa -16 + ^ .cfa: $rsp 16 +
STACK CFI 13428 $r14: .cfa -24 + ^ .cfa: $rsp 24 +
STACK CFI 1342a $r13: .cfa -32 + ^ .cfa: $rsp 32 +
STACK CFI 1342c $r12: .cfa -40 + ^ .cfa: $rsp 40 +
STACK CFI 1342d $rbp: .cfa -48 + ^ .cfa: $rsp 48 +
STACK CFI 1342e $rbx: .cfa -56 + ^ .cfa: $rsp 56 +
STACK CFI 13432 .cfa: $rsp 128 +
STACK CFI 13530 .cfa: $rsp 56 +
STACK CFI 13531 .cfa: $rsp 48 +
STACK CFI 13532 .cfa: $rsp 40 +
STACK CFI 13534 .cfa: $rsp 32 +
STACK CFI 13536 .cfa: $rsp 24 +
STACK CFI 13538 .cfa: $rsp 16 +
STACK CFI 1353a .cfa: $rsp 8 +
STACK CFI 13540 .cfa: $rsp 128 +
STACK CFI INIT 13170 2ae .cfa: $rsp 8 + .ra: .cfa -8 + ^
STACK CFI 13176 $r15: .cfa -16 + ^ .cfa: $rsp 16 +
STACK CFI 13178 $r14: .cfa -24 + ^ .cfa: $rsp 24 +
STACK CFI 1317a $r13: .cfa -32 + ^ .cfa: $rsp 32 +
STACK CFI 1317c $r12: .cfa -40 + ^ .cfa: $rsp 40 +
STACK CFI 1317d $rbp: .cfa -48 + ^ .cfa: $rsp 48 +
STACK CFI 1317e $rbx: .cfa -56 + ^ .cfa: $rsp 56 +
STACK CFI 13182 .cfa: $rsp 112 +
STACK CFI 131d3 .cfa: $rsp 56 +
STACK CFI 131d7 .cfa: $rsp 48 +
STACK CFI 131d8 .cfa: $rsp 40 +
STACK CFI 131da .cfa: $rsp 32 +
STACK CFI 131dc .cfa: $rsp 24 +
STACK CFI 131de .cfa: $rsp 16 +
STACK CFI 131e0 .cfa: $rsp 8 +
STACK CFI 131e8 .cfa: $rsp 112 +
STACK CFI INIT 136f0 ea .cfa: $rsp 8 + .ra: .cfa -8 + ^
STACK CFI 136f2 $r15: .cfa -16 + ^ .cfa: $rsp 16 +
STACK CFI 136f4 $r14: .cfa -24 + ^ .cfa: $rsp 24 +
STACK CFI 136f6 $r13: .cfa -32 + ^ .cfa: $rsp 32 +
STACK CFI 136f8 $r12: .cfa -40 + ^ .cfa: $rsp 40 +
STACK CFI 136fc $rbp: .cfa -48 + ^ .cfa: $rsp 48 +
STACK CFI 136fd $rbx: .cfa -56 + ^ .cfa: $rsp 56 +
STACK CFI 13701 .cfa: $rsp 80 +
STACK CFI 137af .cfa: $rsp 56 +
STACK CFI 137b3 .cfa: $rsp 48 +
STACK CFI 137b4 .cfa: $rsp 40 +
STACK CFI 137b6 .cfa: $rsp 32 +
STACK CFI 137b8 .cfa: $rsp 24 +
STACK CFI 137ba .cfa: $rsp 16 +
STACK CFI 137bc .cfa: $rsp 8 +
STACK CFI 137bd .cfa: $rsp 80 +
STACK CFI INIT 3fa8 10 $r12: .cfa -40 + ^ $r13: .cfa -32 + ^ $r14: .cfa -24 + ^ $r15: .cfa -16 + ^ $rbp: .cfa -48 + ^ $rbx: .cfa -56 + ^ .cfa: $rsp 80 + .ra: .cfa -8 + ^
STACK CFI INIT 137e0 317 .cfa: $rsp 8 + .ra: .cfa -8 + ^
STACK CFI 137ee $r15: .cfa -16 + ^ .cfa: $rsp 16 +
STACK CFI 137f3 $r14: .cfa -24 + ^ .cfa: $rsp 24 +
STACK CFI 137f5 $r13: .cfa -32 + ^ .cfa: $rsp 32 +
STACK CFI 137f7 $r12: .cfa -40 + ^ .cfa: $rsp 40 +
STACK CFI 137f8 $rbp: .cfa -48 + ^ .cfa: $rsp 48 +
STACK CFI 137f9 $rbx: .cfa -56 + ^ .cfa: $rsp 56 +
STACK CFI 13800 .cfa: $rsp 96 +
STACK CFI 1383f .cfa: $rsp 56 +
STACK CFI 13843 .cfa: $rsp 48 +
STACK CFI 13844 .cfa: $rsp 40 +
STACK CFI 13846 .cfa: $rsp 32 +
STACK CFI 13848 .cfa: $rsp 24 +
STACK CFI 1384a .cfa: $rsp 16 +
STACK CFI 1384c .cfa: $rsp 8 +
STACK CFI 13850 .cfa: $rsp 96 +
STACK CFI 13963 $r12: $r12 $r13: $r13 $r14: $r14 $r15: $r15 $rbp: $rbp $rbx: $rbx .cfa: $rsp 8 +
STACK CFI 13966 $r12: .cfa -40 + ^ $r13: .cfa -32 + ^ $r14: .cfa -24 + ^ $r15: .cfa -16 + ^ $rbp: .cfa -48 + ^ $rbx: .cfa -56 + ^ .cfa: $rsp 96 +
STACK CFI INIT 13b00 d3 .cfa: $rsp 8 + .ra: .cfa -8 + ^
STACK CFI 13b06 $r13: .cfa -16 + ^ .cfa: $rsp 16 +
STACK CFI 13b08 $r12: .cfa -24 + ^ .cfa: $rsp 24 +
STACK CFI 13b0d $rbp: .cfa -32 + ^ .cfa: $rsp 32 +
STACK CFI 13b0e $rbx: .cfa -40 + ^ .cfa: $rsp 40 +
STACK CFI 13b12 .cfa: $rsp 64 +
STACK CFI 13b73 .cfa: $rsp 40 +
STACK CFI 13b74 .cfa: $rsp 32 +
STACK CFI 13b75 .cfa: $rsp 24 +
STACK CFI 13b77 .cfa: $rsp 16 +
STACK CFI 13b79 .cfa: $rsp 8 +
STACK CFI 13b80 .cfa: $rsp 64 +
STACK CFI INIT 13be0 95 .cfa: $rsp 8 + .ra: .cfa -8 + ^
STACK CFI 13be6 $r12: .cfa -16 + ^ .cfa: $rsp 16 +
STACK CFI 13bf6 .cfa: $rsp 48 +
STACK CFI 13c6a .cfa: $rsp 16 +
STACK CFI 13c6f .cfa: $rsp 8 +
STACK CFI 13c70 .cfa: $rsp 48 +
STACK CFI INIT 13c80 4f .cfa: $rsp 8 + .ra: .cfa -8 + ^
STACK CFI 13c86 $r12: .cfa -16 + ^ .cfa: $rsp 16 +
STACK CFI 13c8d .cfa: $rsp 32 +
STACK CFI 13cc4 .cfa: $rsp 16 +
STACK CFI 13cc9 .cfa: $rsp 8 +
STACK CFI 13cca .cfa: $rsp 32 +
STACK CFI INIT 14030 25a .cfa: $rsp 8 + .ra: .cfa -8 + ^
STACK CFI 14045 $r15: .cfa -16 + ^ .cfa: $rsp 16 +
STACK CFI 14047 $r14: .cfa -24 + ^ .cfa: $rsp 24 +
STACK CFI 14049 $r13: .cfa -32 + ^ .cfa: $rsp 32 +
STACK CFI 1404b $r12: .cfa -40 + ^ .cfa: $rsp 40 +
STACK CFI 1404c $rbp: .cfa -48 + ^ .cfa: $rsp 48 +
STACK CFI 14050 $rbx: .cfa -56 + ^ .cfa: $rsp 56 +
STACK CFI 1405a .cfa: $rsp 80 +
STACK CFI 1408f .cfa: $rsp 56 +
STACK CFI 14090 .cfa: $rsp 48 +
STACK CFI 14091 .cfa: $rsp 40 +
STACK CFI 14093 .cfa: $rsp 32 +
STACK CFI 14095 .cfa: $rsp 24 +
STACK CFI 14097 .cfa: $rsp 16 +
STACK CFI 14099 .cfa: $rsp 8 +
STACK CFI 140a0 $r12: $r12 $r13: $r13 $r14: $r14 $r15: $r15 $rbp: $rbp $rbx: $rbx
STACK CFI 140a8 $r12: .cfa -40 + ^ $r13: .cfa -32 + ^ $r14: .cfa -24 + ^ $r15: .cfa -16 + ^ $rbp: .cfa -48 + ^ $rbx: .cfa -56 + ^ .cfa: $rsp 80 +
STACK CFI 14129 .cfa: $rsp 56 +
STACK CFI 1412a .cfa: $rsp 48 +
STACK CFI 1412b .cfa: $rsp 40 +
STACK CFI 1412d .cfa: $rsp 32 +
STACK CFI 1412f .cfa: $rsp 24 +
STACK CFI 14131 .cfa: $rsp 16 +
STACK CFI 14133 .cfa: $rsp 8 +
STACK CFI 14138 .cfa: $rsp 80 +
STACK CFI INIT 13cd0 2c9 .cfa: $rsp 8 + .ra: .cfa -8 + ^
STACK CFI 13cd6 $r15: .cfa -16 + ^ .cfa: $rsp 16 +
STACK CFI 13cdd $r14: .cfa -24 + ^ .cfa: $rsp 24 +
STACK CFI 13cdf $r13: .cfa -32 + ^ .cfa: $rsp 32 +
STACK CFI 13ce4 $r12: .cfa -40 + ^ .cfa: $rsp 40 +
STACK CFI 13ce5 $rbp: .cfa -48 + ^ .cfa: $rsp 48 +
STACK CFI 13ce6 $rbx: .cfa -56 + ^ .cfa: $rsp 56 +
STACK CFI 13cf7 .cfa: $rsp 224 +
STACK CFI 13d5e .cfa: $rsp 56 +
STACK CFI 13d62 .cfa: $rsp 48 +
STACK CFI 13d63 .cfa: $rsp 40 +
STACK CFI 13d65 .cfa: $rsp 32 +
STACK CFI 13d67 .cfa: $rsp 24 +
STACK CFI 13d69 .cfa: $rsp 16 +
STACK CFI 13d6b .cfa: $rsp 8 +
STACK CFI 13d70 .cfa: $rsp 224 +
STACK CFI INIT 3fb8 43 $r12: .cfa -40 + ^ $r13: .cfa -32 + ^ $r14: .cfa -24 + ^ $r15: .cfa -16 + ^ $rbp: .cfa -48 + ^ $rbx: .cfa -56 + ^ .cfa: $rsp 224 + .ra: .cfa -8 + ^
STACK CFI INIT 13fa0 86 .cfa: $rsp 8 + .ra: .cfa -8 + ^
STACK CFI 13fa6 $r13: .cfa -16 + ^ .cfa: $rsp 16 +
STACK CFI 13faa $r12: .cfa -24 + ^ .cfa: $rsp 24 +
STACK CFI 13fab $rbp: .cfa -32 + ^ .cfa: $rsp 32 +
STACK CFI 13fb2 .cfa: $rsp 64 +
STACK CFI 14000 .cfa: $rsp 32 +
STACK CFI 14004 .cfa: $rsp 24 +
STACK CFI 14006 .cfa: $rsp 16 +
STACK CFI 14008 .cfa: $rsp 8 +
STACK CFI 14010 .cfa: $rsp 64 +
STACK CFI INIT 3ffc 10 $r12: .cfa -24 + ^ $r13: .cfa -16 + ^ $rbp: .cfa -32 + ^ .cfa: $rsp 64 + .ra: .cfa -8 + ^
STACK CFI INIT 143f0 25 .cfa: $rsp 8 + .ra: .cfa -8 + ^
STACK CFI 143f8 .cfa: $rsp 16 +
STACK CFI 1440a .cfa: $rsp 8 +
STACK CFI INIT 14290 ea .cfa: $rsp 8 + .ra: .cfa -8 + ^
STACK CFI 14296 $r12: .cfa -16 + ^ .cfa: $rsp 16 +
STACK CFI 142a1 $rbp: .cfa -24 + ^ .cfa: $rsp 24 +
STACK CFI 142a5 $rbx: .cfa -32 + ^ .cfa: $rsp 32 +
STACK CFI 142b4 .cfa: $rsp 24 +
STACK CFI 142d2 .cfa: $rsp 16 +
STACK CFI 142d4 .cfa: $rsp 8 +
STACK CFI 142d8 .cfa: $rsp 32 +
STACK CFI INIT 14380 70 .cfa: $rsp 8 + .ra: .cfa -8 + ^
STACK CFI 14385 $rbx: .cfa -16 + ^ .cfa: $rsp 16 +
STACK CFI 143a7 .cfa: $rsp 24 +
STACK CFI 143ab .cfa: $rsp 32 +
STACK CFI 143b0 .cfa: $rsp 40 +
STACK CFI 143b5 .cfa: $rsp 48 +
STACK CFI 143c6 .cfa: $rsp 16 +
STACK CFI 143d0 .cfa: $rsp 8 +
STACK CFI 143d1 .cfa: $rsp 16 +
STACK CFI INIT 14420 21 .cfa: $rsp 8 + .ra: .cfa -8 + ^
STACK CFI INIT 14450 53 .cfa: $rsp 8 + .ra: .cfa -8 + ^
STACK CFI INIT 144b0 3e .cfa: $rsp 8 + .ra: .cfa -8 + ^
STACK CFI INIT 144f0 54 .cfa: $rsp 8 + .ra: .cfa -8 + ^
STACK CFI INIT 14550 39 .cfa: $rsp 8 + .ra: .cfa -8 + ^
STACK CFI INIT 14590 4b .cfa: $rsp 8 + .ra: .cfa -8 + ^
STACK CFI INIT 145e0 32 .cfa: $rsp 8 + .ra: .cfa -8 + ^
STACK CFI INIT 14620 27 .cfa: $rsp 8 + .ra: .cfa -8 + ^
STACK CFI INIT 14650 2b .cfa: $rsp 8 + .ra: .cfa -8 + ^
STACK CFI INIT 14680 6c .cfa: $rsp 8 + .ra: .cfa -8 + ^
STACK CFI INIT 146f0 43 .cfa: $rsp 8 + .ra: .cfa -8 + ^
STACK CFI INIT 14740 19 .cfa: $rsp 8 + .ra: .cfa -8 + ^
STACK CFI INIT 14760 37 .cfa: $rsp 8 + .ra: .cfa -8 + ^
STACK CFI INIT 147a0 3f .cfa: $rsp 8 + .ra: .cfa -8 + ^
STACK CFI 147ad $rbx: .cfa -16 + ^ .cfa: $rsp 16 +
STACK CFI 147dd .cfa: $rsp 8 +
STACK CFI 147de $rbx: $rbx
STACK CFI INIT 147e0 6c .cfa: $rsp 8 + .ra: .cfa -8 + ^
STACK CFI 147e8 .cfa: $rsp 32 +
STACK CFI 1483e .cfa: $rsp 8 +
STACK CFI 14840 .cfa: $rsp 32 +
STACK CFI INIT 14850 14 .cfa: $rsp 8 + .ra: .cfa -8 + ^
STACK CFI INIT 14870 53 .cfa: $rsp 8 + .ra: .cfa -8 + ^
STACK CFI 14875 $rbp: .cfa -16 + ^ .cfa: $rsp 16 +
STACK CFI 14876 $rbx: .cfa -24 + ^ .cfa: $rsp 24 +
STACK CFI 1487d .cfa: $rsp 32 +
STACK CFI 148ae .cfa: $rsp 24 +
STACK CFI 148af .cfa: $rsp 16 +
STACK CFI 148b0 .cfa: $rsp 8 +
STACK CFI 148b8 .cfa: $rsp 32 +
STACK CFI INIT 148d0 12 .cfa: $rsp 8 + .ra: .cfa -8 + ^
STACK CFI 148d8 .cfa: $rsp 16 +
STACK CFI 148e1 .cfa: $rsp 8 +
STACK CFI INIT 148f0 1cf .cfa: $rsp 8 + .ra: .cfa -8 + ^
STACK CFI 148f6 $r15: .cfa -16 + ^ .cfa: $rsp 16 +
STACK CFI 148f8 $r14: .cfa -24 + ^ .cfa: $rsp 24 +
STACK CFI 148fa $r13: .cfa -32 + ^ .cfa: $rsp 32 +
STACK CFI 148ff $r12: .cfa -40 + ^ .cfa: $rsp 40 +
STACK CFI 14903 $rbp: .cfa -48 + ^ .cfa: $rsp 48 +
STACK CFI 14907 $rbx: .cfa -56 + ^ .cfa: $rsp 56 +
STACK CFI 14911 .cfa: $rsp 224 +
STACK CFI 149b1 .cfa: $rsp 56 +
STACK CFI 149b5 .cfa: $rsp 48 +
STACK CFI 149b6 .cfa: $rsp 40 +
STACK CFI 149b8 .cfa: $rsp 32 +
STACK CFI 149ba .cfa: $rsp 24 +
STACK CFI 149bc .cfa: $rsp 16 +
STACK CFI 149be .cfa: $rsp 8 +
STACK CFI 149c0 .cfa: $rsp 224 +
STACK CFI INIT 14ac0 18 .cfa: $rsp 8 + .ra: .cfa -8 + ^
STACK CFI INIT 14ae0 40 .cfa: $rsp 8 + .ra: .cfa -8 + ^
STACK CFI 14ae5 $rbx: .cfa -16 + ^ .cfa: $rsp 16 +
STACK CFI 14b03 .cfa: $rsp 8 +
STACK CFI 14b08 .cfa: $rsp 16 +
STACK CFI 14b1f .cfa: $rsp 8 +
STACK CFI INIT 14b20 5 .cfa: $rsp 8 + .ra: .cfa -8 + ^
STACK CFI INIT 14b30 e .cfa: $rsp 8 + .ra: .cfa -8 + ^
STACK CFI INIT 14b40 202 .cfa: $rsp 8 + .ra: .cfa -8 + ^
STACK CFI 14b46 $r12: .cfa -16 + ^ .cfa: $rsp 16 +
STACK CFI 14b4a $rbp: .cfa -24 + ^ .cfa: $rsp 24 +
STACK CFI 14b4b $rbx: .cfa -32 + ^ .cfa: $rsp 32 +
STACK CFI 14b52 .cfa: $rsp 176 +
STACK CFI 14ba5 .cfa: $rsp 32 +
STACK CFI 14ba6 .cfa: $rsp 24 +
STACK CFI 14ba7 .cfa: $rsp 16 +
STACK CFI 14ba9 .cfa: $rsp 8 +
STACK CFI 14bb0 .cfa: $rsp 176 +
STACK CFI INIT 14d50 2b .cfa: $rsp 8 + .ra: .cfa -8 + ^
STACK CFI 14d59 $rbx: .cfa -16 + ^ .cfa: $rsp 16 +
STACK CFI 14d73 .cfa: $rsp 8 +
STACK CFI 14d78 $rbx: $rbx
STACK CFI INIT 14d80 c .cfa: $rsp 8 + .ra: .cfa -8 + ^
STACK CFI INIT 14d90 341 .cfa: $rsp 8 + .ra: .cfa -8 + ^
STACK CFI INIT 150e0 49 .cfa: $rsp 8 + .ra: .cfa -8 + ^
STACK CFI 1510a .cfa: $rsp 16 +
STACK CFI INIT 15130 51 .cfa: $rsp 8 + .ra: .cfa -8 + ^
STACK CFI 15162 .cfa: $rsp 16 +
STACK CFI INIT 15190 c .cfa: $rsp 8 + .ra: .cfa -8 + ^
STACK CFI INIT 151a0 c .cfa: $rsp 8 + .ra: .cfa -8 + ^
STACK CFI INIT 151b0 2bf .cfa: $rsp 8 + .ra: .cfa -8 + ^
STACK CFI INIT 15470 e1 .cfa: $rsp 8 + .ra: .cfa -8 + ^
STACK CFI INIT 15560 112 .cfa: $rsp 8 + .ra: .cfa -8 + ^
STACK CFI 1556c $r12: .cfa -16 + ^ .cfa: $rsp 16 +
STACK CFI 15573 $rbx: .cfa -24 + ^ .cfa: $rsp 24 +
STACK CFI 155fa .cfa: $rsp 16 +
STACK CFI 155fc .cfa: $rsp 8 +
STACK CFI 15600 .cfa: $rsp 24 +
STACK CFI 1565c .cfa: $rsp 16 +
STACK CFI 1565e .cfa: $rsp 8 +
STACK CFI 1565f .cfa: $rsp 24 +
STACK CFI INIT 15680 126 .cfa: $rsp 8 + .ra: .cfa -8 + ^
STACK CFI 15686 $r12: .cfa -16 + ^ .cfa: $rsp 16 +
STACK CFI 1568a $rbp: .cfa -24 + ^ .cfa: $rsp 24 +
STACK CFI 15692 $rbx: .cfa -32 + ^ .cfa: $rsp 32 +
STACK CFI 1572e .cfa: $rsp 24 +
STACK CFI 15733 .cfa: $rsp 16 +
STACK CFI 15738 .cfa: $rsp 8 +
STACK CFI 15740 .cfa: $rsp 32 +
STACK CFI 15763 .cfa: $rsp 24 +
STACK CFI 15768 .cfa: $rsp 16 +
STACK CFI 1576d .cfa: $rsp 8 +
STACK CFI 15770 .cfa: $rsp 32 +
STACK CFI 1577b .cfa: $rsp 24 +
STACK CFI 15780 .cfa: $rsp 16 +
STACK CFI 15785 .cfa: $rsp 8 +
STACK CFI 15790 .cfa: $rsp 32 +
STACK CFI 1579b .cfa: $rsp 24 +
STACK CFI 157a0 .cfa: $rsp 16 +
STACK CFI 157a5 .cfa: $rsp 8 +
STACK CFI INIT 157b0 1b5 .cfa: $rsp 8 + .ra: .cfa -8 + ^
STACK CFI 157b6 $r13: .cfa -16 + ^ .cfa: $rsp 16 +
STACK CFI 157bb $r12: .cfa -24 + ^ .cfa: $rsp 24 +
STACK CFI 157bc $rbp: .cfa -32 + ^ .cfa: $rsp 32 +
STACK CFI 157c0 $rbx: .cfa -40 + ^ .cfa: $rsp 40 +
STACK CFI 158da .cfa: $rsp 32 +
STACK CFI 158db .cfa: $rsp 24 +
STACK CFI 158dd .cfa: $rsp 16 +
STACK CFI 158df .cfa: $rsp 8 +
STACK CFI 158e0 .cfa: $rsp 40 +
STACK CFI 1590c .cfa: $rsp 32 +
STACK CFI 1590d .cfa: $rsp 24 +
STACK CFI 1590f .cfa: $rsp 16 +
STACK CFI 15911 .cfa: $rsp 8 +
STACK CFI 15918 .cfa: $rsp 40 +
STACK CFI 15924 .cfa: $rsp 32 +
STACK CFI 15925 .cfa: $rsp 24 +
STACK CFI 15927 .cfa: $rsp 16 +
STACK CFI 15929 .cfa: $rsp 8 +
STACK CFI 15930 .cfa: $rsp 40 +
STACK CFI 1593c .cfa: $rsp 32 +
STACK CFI 1593d .cfa: $rsp 24 +
STACK CFI 1593f .cfa: $rsp 16 +
STACK CFI 15941 .cfa: $rsp 8 +
STACK CFI 15942 .cfa: $rsp 40 +
STACK CFI INIT 15970 33 .cfa: $rsp 8 + .ra: .cfa -8 + ^
STACK CFI INIT 159b0 265 .cfa: $rsp 8 + .ra: .cfa -8 + ^
STACK CFI 159b6 $r15: .cfa -16 + ^ .cfa: $rsp 16 +
STACK CFI 159b8 $r14: .cfa -24 + ^ .cfa: $rsp 24 +
STACK CFI 159ba $r13: .cfa -32 + ^ .cfa: $rsp 32 +
STACK CFI 159bc $r12: .cfa -40 + ^ .cfa: $rsp 40 +
STACK CFI 159bd $rbp: .cfa -48 + ^ .cfa: $rsp 48 +
STACK CFI 159be $rbx: .cfa -56 + ^ .cfa: $rsp 56 +
STACK CFI 159c2 .cfa: $rsp 80 +
STACK CFI 15b15 .cfa: $rsp 56 +
STACK CFI 15b16 .cfa: $rsp 48 +
STACK CFI 15b17 .cfa: $rsp 40 +
STACK CFI 15b19 .cfa: $rsp 32 +
STACK CFI 15b1b .cfa: $rsp 24 +
STACK CFI 15b1d .cfa: $rsp 16 +
STACK CFI 15b1f .cfa: $rsp 8 +
STACK CFI 15b20 .cfa: $rsp 80 +
STACK CFI INIT 400c 7 $r12: .cfa -40 + ^ $r13: .cfa -32 + ^ $r14: .cfa -24 + ^ $r15: .cfa -16 + ^ $rbp: .cfa -48 + ^ $rbx: .cfa -56 + ^ .cfa: $rsp 80 + .ra: .cfa -8 + ^
STACK CFI INIT 15c20 1de .cfa: $rsp 8 + .ra: .cfa -8 + ^
STACK CFI 15c26 $r13: .cfa -16 + ^ .cfa: $rsp 16 +
STACK CFI 15c2e $r12: .cfa -24 + ^ .cfa: $rsp 24 +
STACK CFI 15c2f $rbp: .cfa -32 + ^ .cfa: $rsp 32 +
STACK CFI 15c30 $rbx: .cfa -40 + ^ .cfa: $rsp 40 +
STACK CFI 15d03 .cfa: $rsp 32 +
STACK CFI 15d07 .cfa: $rsp 24 +
STACK CFI 15d0c .cfa: $rsp 16 +
STACK CFI 15d11 .cfa: $rsp 8 +
STACK CFI 15d18 .cfa: $rsp 40 +
STACK CFI 15dc7 .cfa: $rsp 32 +
STACK CFI 15dcb .cfa: $rsp 24 +
STACK CFI 15dd0 .cfa: $rsp 16 +
STACK CFI 15dd2 .cfa: $rsp 8 +
STACK CFI 15de0 .cfa: $rsp 40 +
STACK CFI 15de7 .cfa: $rsp 32 +
STACK CFI 15de8 .cfa: $rsp 24 +
STACK CFI 15df3 .cfa: $rsp 16 +
STACK CFI 15df5 .cfa: $rsp 8 +
STACK CFI 15df6 .cfa: $rsp 40 +
STACK CFI INIT 15e00 26f .cfa: $rsp 8 + .ra: .cfa -8 + ^
STACK CFI 15e06 $r15: .cfa -16 + ^ .cfa: $rsp 16 +
STACK CFI 15e08 $r14: .cfa -24 + ^ .cfa: $rsp 24 +
STACK CFI 15e0a $r13: .cfa -32 + ^ .cfa: $rsp 32 +
STACK CFI 15e0c $r12: .cfa -40 + ^ .cfa: $rsp 40 +
STACK CFI 15e0d $rbp: .cfa -48 + ^ .cfa: $rsp 48 +
STACK CFI 15e0e $rbx: .cfa -56 + ^ .cfa: $rsp 56 +
STACK CFI 15e12 .cfa: $rsp 88 +
STACK CFI 15f95 .cfa: $rsp 56 +
STACK CFI 15f96 .cfa: $rsp 48 +
STACK CFI 15f97 .cfa: $rsp 40 +
STACK CFI 15f99 .cfa: $rsp 32 +
STACK CFI 15f9b .cfa: $rsp 24 +
STACK CFI 15f9d .cfa: $rsp 16 +
STACK CFI 15f9f .cfa: $rsp 8 +
STACK CFI 15fa0 .cfa: $rsp 88 +
STACK CFI INIT 4013 7 $r12: .cfa -40 + ^ $r13: .cfa -32 + ^ $r14: .cfa -24 + ^ $r15: .cfa -16 + ^ $rbp: .cfa -48 + ^ $rbx: .cfa -56 + ^ .cfa: $rsp 88 + .ra: .cfa -8 + ^
