MODULE Linux x86_64 4E2F1CEC0BE7D42F754B6F149197AE5A0 crash
INFO CODE_ID EC1C2F4EE70B2FD4754B6F149197AE5A14AD75C8
FUNC 3b2e 2c 0 MinidumpWriter::~MinidumpWriter
FUNC 3b5a 14 0 google_breakpad::TypedMDRVA<unsigned int>::Flush()
FUNC 4029 42 0 DumpCallback
FUNC 406b 1d 0 crash_function1()
FUNC 4088 196 0 main
FUNC 421e 3e 0 std::char_traits<char>::length(char const*)
FUNC 425c 3e 0 google_breakpad::MicrodumpExtraInfo::MicrodumpExtraInfo()
FUNC 429a d2 0 google_breakpad::MinidumpDescriptor::MinidumpDescriptor(std::__cxx11::basic_string<char, std::char_traits<char>, std::allocator<char> > const&)
FUNC 436c 16 0 google_breakpad::MinidumpDescriptor::path() const
FUNC 4382 33 0 google_breakpad::MinidumpDescriptor::~MinidumpDescriptor()
FUNC 43b5 25 0 __gnu_cxx::char_traits<char>::eq(char const&, char const&)
FUNC 43da 6d 0 __gnu_cxx::char_traits<char>::length(char const*)
FUNC 4448 1f 0 std::__cxx11::basic_string<char, std::char_traits<char>, std::allocator<char> >::_Alloc_hider::~_Alloc_hider()
FUNC 4468 c3 0 std::__cxx11::basic_string<char, std::char_traits<char>, std::allocator<char> >::basic_string<std::allocator<char> >(char const*, std::allocator<char> const&)
FUNC 452b 35 0 std::iterator_traits<char const*>::difference_type std::distance<char const*>(char const*, char const*)
FUNC 4560 145 0 void std::__cxx11::basic_string<char, std::char_traits<char>, std::allocator<char> >::_M_construct<char const*>(char const*, char const*, std::forward_iterator_tag)
FUNC 46a5 16 0 bool __gnu_cxx::__is_null_pointer<char const>(char const*)
FUNC 46bb e 0 std::iterator_traits<char const*>::iterator_category std::__iterator_category<char const*>(char const* const&)
FUNC 46c9 1a 0 std::iterator_traits<char const*>::difference_type std::__distance<char const*>(char const*, char const*, std::random_access_iterator_tag)
FUNC 46f0 143 0 google_breakpad::ExceptionHandler::InstallHandlersLocked()
FUNC 4840 99 0 google_breakpad::ExceptionHandler::RestoreHandlersLocked()
FUNC 48e0 327 0 google_breakpad::ExceptionHandler::~ExceptionHandler()
FUNC 4c10 d5 0 google_breakpad::ExceptionHandler::SendContinueSignalToChild()
FUNC 51b0 193 0 google_breakpad::ExceptionHandler::HandleSignal(int, siginfo_t*, void*)
FUNC 5350 1f6 0 google_breakpad::ExceptionHandler::SignalHandler(int, siginfo_t*, void*)
FUNC 5550 87 0 google_breakpad::ExceptionHandler::SimulateSignalDelivery(int)
FUNC 55e0 f5 0 google_breakpad::ExceptionHandler::WaitForContinueSignal()
FUNC 56e0 ba 0 google_breakpad::ExceptionHandler::DoDump(int, void const*, unsigned long)
FUNC 57a0 82 0 google_breakpad::ExceptionHandler::ThreadEntry(void*)
FUNC 5830 1b5 0 google_breakpad::ExceptionHandler::WriteMinidump()
FUNC 59f0 d8 0 google_breakpad::ExceptionHandler::AddMappingInfo(std::__cxx11::basic_string<char, std::char_traits<char>, std::allocator<char> > const&, unsigned char const*, unsigned long, unsigned long, unsigned long)
FUNC 5ad0 81 0 google_breakpad::ExceptionHandler::RegisterAppMemory(void*, unsigned long)
FUNC 5b60 5a 0 google_breakpad::ExceptionHandler::UnregisterAppMemory(void*)
FUNC 5e20 c 0 google_breakpad::SetFirstChanceExceptionHandler(bool (*)(int, siginfo_t*, void*))
FUNC 63c0 167 0 void std::vector<google_breakpad::ExceptionHandler*, std::allocator<google_breakpad::ExceptionHandler*> >::_M_realloc_insert<google_breakpad::ExceptionHandler*>(__gnu_cxx::__normal_iterator<google_breakpad::ExceptionHandler**, std::vector<google_breakpad::ExceptionHandler*, std::allocator<google_breakpad::ExceptionHandler*> > >, google_breakpad::ExceptionHandler*&&)
FUNC 6530 c0 0 void std::__cxx11::basic_string<char, std::char_traits<char>, std::allocator<char> >::_M_construct<char*>(char*, char*, std::forward_iterator_tag)
FUNC 65f0 a6 0 google_breakpad::MinidumpDescriptor::MinidumpDescriptor(google_breakpad::MinidumpDescriptor const&)
FUNC 6a40 c2 0 google_breakpad::MinidumpDescriptor::operator=(google_breakpad::MinidumpDescriptor const&)
FUNC 6b10 40 0 logger::write(char const*, unsigned long)
FUNC 6b50 53f 0 MicrodumpWriter::DumpModule
FUNC 8070 a 0 google_breakpad::LinuxDumper::LateInit()
FUNC 89f0 8b 0 google_breakpad::LinuxDumper::~LinuxDumper()
FUNC 8a80 1b 0 google_breakpad::LinuxDumper::~LinuxDumper()
FUNC 8aa0 18 0 google_breakpad::LinuxDumper::SetCrashInfoFromSigInfo(siginfo_t const&)
FUNC 8ac0 244 0 google_breakpad::LinuxDumper::GetCrashSignalString() const
FUNC 8d10 61 0 google_breakpad::LinuxDumper::GetMappingAbsolutePath(google_breakpad::MappingInfo const&, char*) const
FUNC 8e70 1a3 0 google_breakpad::LinuxDumper::HandleDeletedFileInMapping(char*) const
FUNC 9020 12e 0 google_breakpad::LinuxDumper::GetMappingEffectiveNameAndPath(google_breakpad::MappingInfo const&, char*, unsigned long, char*, unsigned long)
FUNC 9150 13d 0 google_breakpad::LinuxDumper::ReadAuxv()
FUNC 9290 34 0 google_breakpad::LinuxDumper::Init()
FUNC 92d0 48 0 google_breakpad::LinuxDumper::StackHasPointerToMapping(unsigned char const*, unsigned long, unsigned long, google_breakpad::MappingInfo const&)
FUNC 9320 48 0 google_breakpad::LinuxDumper::FindMapping(void const*) const
FUNC 9370 73 0 google_breakpad::LinuxDumper::GetStackInfo(void const**, unsigned long*, unsigned long)
FUNC 93f0 40 0 google_breakpad::LinuxDumper::FindMappingNoBias(unsigned long) const
FUNC 9430 22f 0 google_breakpad::LinuxDumper::SanitizeStackCopy(unsigned char*, unsigned long, unsigned long, unsigned long)
FUNC 9660 5c 0 google_breakpad::LinuxDumper::HandleDeletedFileInMapping(char*) const
FUNC a000 2d3 0 std::vector<unsigned long, google_breakpad::PageStdAllocator<unsigned long> >::_M_default_append(unsigned long)
FUNC a2e0 7 0 google_breakpad::LinuxPtraceDumper::IsPostMortem() const
FUNC a2f0 189 0 google_breakpad::LinuxPtraceDumper::CopyFromProcess(void*, int, void const*, unsigned long)
FUNC a480 a8 0 google_breakpad::LinuxPtraceDumper::BuildProcPath(char*, int, char const*) const
FUNC a530 2b 0 google_breakpad::LinuxPtraceDumper::BuildProcPath(char*, int, char const*) const
FUNC a560 bd 0 google_breakpad::LinuxPtraceDumper::ThreadsResume()
FUNC ac60 2b 0 google_breakpad::LinuxPtraceDumper::LinuxPtraceDumper(int)
FUNC ac90 e5 0 google_breakpad::LinuxPtraceDumper::ReadRegisterSet(google_breakpad::ThreadInfo*, int)
FUNC ad80 dd 0 google_breakpad::LinuxPtraceDumper::ReadRegisters(google_breakpad::ThreadInfo*, int)
FUNC b320 26d 0 google_breakpad::LinuxPtraceDumper::ThreadsSuspend()
FUNC b590 17 0 google_breakpad::LinuxPtraceDumper::~LinuxPtraceDumper()
FUNC b5b0 29 0 google_breakpad::LinuxPtraceDumper::~LinuxPtraceDumper()
FUNC b5e0 2d3 0 std::vector<int, google_breakpad::PageStdAllocator<int> >::_M_default_append(unsigned long)
FUNC b8c0 25 0 google_breakpad::TypedMDRVA<MDRawDirectory>::CopyIndex(unsigned int, MDRawDirectory*)
FUNC b8f0 25 0 google_breakpad::TypedMDRVA<unsigned int>::AllocateObjectAndArray(unsigned long, unsigned long)
FUNC b920 25 0 MinidumpWriter::MinidumpWriter
FUNC c170 2c4 0 MinidumpWriter::Init
FUNC f680 3a 0 google_breakpad::WriteMinidump(char const*, int, void const*, unsigned long, std::__cxx11::list<google_breakpad::MappingEntry, std::allocator<google_breakpad::MappingEntry> > const&, std::__cxx11::list<google_breakpad::AppMemory, std::allocator<google_breakpad::AppMemory> > const&, bool, unsigned long, bool)
FUNC f6c0 39 0 google_breakpad::WriteMinidump(int, int, void const*, unsigned long, std::__cxx11::list<google_breakpad::MappingEntry, std::allocator<google_breakpad::MappingEntry> > const&, std::__cxx11::list<google_breakpad::AppMemory, std::allocator<google_breakpad::AppMemory> > const&, bool, unsigned long, bool)
FUNC f700 38 0 google_breakpad::WriteMinidump(char const*, long, int, void const*, unsigned long, std::__cxx11::list<google_breakpad::MappingEntry, std::allocator<google_breakpad::MappingEntry> > const&, std::__cxx11::list<google_breakpad::AppMemory, std::allocator<google_breakpad::AppMemory> > const&, bool, unsigned long, bool)
FUNC f740 3b 0 google_breakpad::WriteMinidump(int, long, int, void const*, unsigned long, std::__cxx11::list<google_breakpad::MappingEntry, std::allocator<google_breakpad::MappingEntry> > const&, std::__cxx11::list<google_breakpad::AppMemory, std::allocator<google_breakpad::AppMemory> > const&, bool, unsigned long, bool)
FUNC fd90 230 0 google_breakpad::ProcCpuInfoReader::GetNextField(char const**)
FUNC ffc0 2c4 0 void std::vector<MDMemoryDescriptor, google_breakpad::PageStdAllocator<MDMemoryDescriptor> >::_M_realloc_insert<MDMemoryDescriptor const&>(__gnu_cxx::__normal_iterator<MDMemoryDescriptor*, std::vector<MDMemoryDescriptor, google_breakpad::PageStdAllocator<MDMemoryDescriptor> > >, MDMemoryDescriptor const&)
FUNC 10290 25a 0 std::vector<char, google_breakpad::PageStdAllocator<char> >::_M_default_append(unsigned long)
FUNC 104f0 34 0 std::__cxx11::_List_base<google_breakpad::MappingEntry, std::allocator<google_breakpad::MappingEntry> >::_M_clear()
FUNC 10530 34 0 std::__cxx11::_List_base<google_breakpad::AppMemory, std::allocator<google_breakpad::AppMemory> >::_M_clear()
FUNC 10570 1e6 0 google_breakpad::PEFile::TryGetDebugInfo(char const*, google_breakpad::_RSDS_DEBUG_FORMAT*)
FUNC 10760 25 0 google_breakpad::TypedMDRVA<MDString>::CopyIndexAfterObject(unsigned int, void const*, unsigned long)
FUNC 10790 25 0 google_breakpad::TypedMDRVA<MDString>::AllocateObjectAndArray(unsigned long, unsigned long)
FUNC 107c0 1e 0 google_breakpad::MinidumpFileWriter::MinidumpFileWriter()
FUNC 107e0 83 0 google_breakpad::MinidumpFileWriter::Open(char const*)
FUNC 10870 30 0 google_breakpad::MinidumpFileWriter::SetFile(int)
FUNC 108a0 6b 0 google_breakpad::MinidumpFileWriter::Close()
FUNC 10910 1e 0 google_breakpad::MinidumpFileWriter::~MinidumpFileWriter()
FUNC 10930 c0 0 google_breakpad::MinidumpFileWriter::Allocate(unsigned long)
FUNC 109f0 10a 0 google_breakpad::MinidumpFileWriter::Copy(unsigned int, void const*, long)
FUNC 10b00 f2 0 google_breakpad::MinidumpFileWriter::CopyStringToMDString(wchar_t const*, unsigned int, google_breakpad::TypedMDRVA<MDString>*)
FUNC 10c00 ef 0 google_breakpad::MinidumpFileWriter::CopyStringToMDString(char const*, unsigned int, google_breakpad::TypedMDRVA<MDString>*)
FUNC 10cf0 45 0 google_breakpad::UntypedMDRVA::Allocate(unsigned long)
FUNC 10d40 8d 0 google_breakpad::UntypedMDRVA::Copy(unsigned int, void const*, unsigned long)
FUNC 10dd0 e7 0 google_breakpad::MinidumpFileWriter::WriteMemory(void const*, unsigned long, MDMemoryDescriptor*)
FUNC 10ec0 9 0 google_breakpad::MinidumpFileWriter::WriteString(wchar_t const*, unsigned int, MDLocationDescriptor*)
FUNC 10ed0 9 0 google_breakpad::MinidumpFileWriter::WriteString(char const*, unsigned int, MDLocationDescriptor*)
FUNC 10ee0 203 0 bool google_breakpad::MinidumpFileWriter::WriteStringCore<wchar_t>(wchar_t const*, unsigned int, MDLocationDescriptor*)
FUNC 110f0 203 0 bool google_breakpad::MinidumpFileWriter::WriteStringCore<char>(char const*, unsigned int, MDLocationDescriptor*)
FUNC 11300 a9 0 google_breakpad::UTF8ToUTF16Char(char const*, int, unsigned short*)
FUNC 113b0 75 0 google_breakpad::UTF32ToUTF16Char(wchar_t, unsigned short*)
FUNC 11610 fc 0 google_breakpad::UTF32ToUTF16(wchar_t const*, std::vector<unsigned short, std::allocator<unsigned short> >*)
FUNC 11710 fc 0 google_breakpad::UTF8ToUTF16(char const*, std::vector<unsigned short, std::allocator<unsigned short> >*)
FUNC 11810 2e2 0 std::vector<unsigned short, std::allocator<unsigned short> >::_M_fill_insert(__gnu_cxx::__normal_iterator<unsigned short*, std::vector<unsigned short, std::allocator<unsigned short> > >, unsigned long, unsigned short const&)
FUNC 11b00 1c6 0 std::vector<unsigned short, std::allocator<unsigned short> >::_M_default_append(unsigned long)
FUNC 11cd0 23 0 google_breakpad::IsValidElf(void const*)
FUNC 11d00 9 0 google_breakpad::ElfClass(void const*)
FUNC 11d10 478 0 google_breakpad::FindElfSection(void const*, char const*, unsigned int, void const**, unsigned long*)
FUNC 12190 155 0 google_breakpad::ElfFileSoNameFromMappedFile(void const*, char*, unsigned long)
FUNC 122f0 2ae 0 google_breakpad::FindElfSegments(void const*, unsigned int, google_breakpad::wasteful_vector<google_breakpad::ElfSegment>*)
FUNC 125a0 2c4 0 void std::vector<google_breakpad::ElfSegment, google_breakpad::PageStdAllocator<google_breakpad::ElfSegment> >::_M_realloc_insert<google_breakpad::ElfSegment const&>(__gnu_cxx::__normal_iterator<google_breakpad::ElfSegment*, std::vector<google_breakpad::ElfSegment, google_breakpad::PageStdAllocator<google_breakpad::ElfSegment> > >, google_breakpad::ElfSegment const&)
FUNC 12960 317 0 google_breakpad::elf::ElfClassBuildIDNoteIdentifier
FUNC 12c80 d3 0 google_breakpad::elf::FileID::FileID(char const*)
FUNC 12d60 95 0 google_breakpad::elf::FileID::ConvertIdentifierToUUIDString[abi:cxx11](google_breakpad::wasteful_vector<unsigned char> const&)
FUNC 12e00 4f 0 google_breakpad::elf::FileID::ConvertIdentifierToString[abi:cxx11](google_breakpad::wasteful_vector<unsigned char> const&)
FUNC 131b0 25a 0 std::vector<unsigned char, google_breakpad::PageStdAllocator<unsigned char> >::_M_default_append(unsigned long)
FUNC 13410 ea 0 CreateGUID(MDGUID*)
FUNC 13500 70 0 GUIDToString(MDGUID const*, char*, int)
FUNC 13570 25 0 GUIDGenerator::InitOnceImpl()
FUNC 135a0 21 0 my_strlen
FUNC 135d0 53 0 my_strcmp
FUNC 13630 3e 0 my_strncmp
FUNC 13670 54 0 my_strtoui
FUNC 136d0 39 0 my_uint_len
FUNC 13710 4b 0 my_uitos
FUNC 13760 32 0 my_strchr
FUNC 137a0 27 0 my_strrchr
FUNC 137d0 2b 0 my_memchr
FUNC 13800 6c 0 my_read_hex_ptr
FUNC 13870 43 0 my_read_decimal_ptr
FUNC 138c0 19 0 my_memset
FUNC 138e0 37 0 my_strlcpy
FUNC 13920 3f 0 my_strlcat
FUNC 13960 6c 0 my_isspace
FUNC 139d0 14 0 google_breakpad::MemoryMappedFile::MemoryMappedFile()
FUNC 139f0 53 0 google_breakpad::MemoryMappedFile::Unmap()
FUNC 13a50 12 0 google_breakpad::MemoryMappedFile::~MemoryMappedFile()
FUNC 13a70 1cf 0 google_breakpad::MemoryMappedFile::Map(char const*, unsigned long)
FUNC 13c40 18 0 google_breakpad::MemoryMappedFile::MemoryMappedFile(char const*, unsigned long)
FUNC 13c60 40 0 google_breakpad::SafeReadLink(char const*, char*, unsigned long)
FUNC 13ca0 5 0 CrashGenerationClientImpl::~CrashGenerationClientImpl
FUNC 13cb0 e 0 CrashGenerationClientImpl::~CrashGenerationClientImpl
FUNC 13cc0 202 0 CrashGenerationClientImpl::RequestDump
FUNC 13ed0 2b 0 google_breakpad::CrashGenerationClient::TryCreate(int)
FUNC 13f00 c 0 google_breakpad::ThreadInfo::GetInstructionPointer() const
FUNC 13f10 341 0 google_breakpad::ThreadInfo::FillCPUContext(MDRawContextAMD64*) const
FUNC 14260 49 0 google_breakpad::ThreadInfo::GetGeneralPurposeRegisters(void**, unsigned long*)
FUNC 142b0 51 0 google_breakpad::ThreadInfo::GetFloatingPointRegisters(void**, unsigned long*)
FUNC 14310 c 0 google_breakpad::UContextReader::GetStackPointer(ucontext_t const*)
FUNC 14320 c 0 google_breakpad::UContextReader::GetInstructionPointer(ucontext_t const*)
FUNC 14330 2bf 0 google_breakpad::UContextReader::FillCPUContext(MDRawContextAMD64*, ucontext_t const*, _libc_fpstate const*)
FUNC 145f0 e1 0 isLegalUTF8
FUNC 146e0 112 0 google_breakpad::ConvertUTF32toUTF16(unsigned long const**, unsigned long const*, unsigned short**, unsigned short*, google_breakpad::ConversionFlags)
FUNC 14800 126 0 google_breakpad::ConvertUTF16toUTF32(unsigned short const**, unsigned short const*, unsigned long**, unsigned long*, google_breakpad::ConversionFlags)
FUNC 14930 1b5 0 google_breakpad::ConvertUTF16toUTF8(unsigned short const**, unsigned short const*, unsigned char**, unsigned char*, google_breakpad::ConversionFlags)
FUNC 14af0 33 0 google_breakpad::isLegalUTF8Sequence(unsigned char const*, unsigned char const*)
FUNC 14da0 1de 0 google_breakpad::ConvertUTF32toUTF8(unsigned long const**, unsigned long const*, unsigned char**, unsigned char*, google_breakpad::ConversionFlags)
PUBLIC 3000 0 _init
PUBLIC 3940 0 google_breakpad::ExceptionHandler::GenerateDump(google_breakpad::ExceptionHandler::CrashContext*) [clone .cold]
PUBLIC 397a 0 google_breakpad::ExceptionHandler::WriteMinidumpForChild(int, int, std::__cxx11::basic_string<char, std::char_traits<char>, std::allocator<char> > const&, bool (*)(google_breakpad::MinidumpDescriptor const&, void*, bool), void*) [clone .cold]
PUBLIC 3996 0 google_breakpad::ExceptionHandler::ExceptionHandler(google_breakpad::MinidumpDescriptor const&, bool (*)(void*), bool (*)(google_breakpad::MinidumpDescriptor const&, void*, bool), void*, bool, int) [clone .cold]
PUBLIC 39fc 0 google_breakpad::ExceptionHandler::WriteMinidump(std::__cxx11::basic_string<char, std::char_traits<char>, std::allocator<char> > const&, bool (*)(google_breakpad::MinidumpDescriptor const&, void*, bool), void*) [clone .cold]
PUBLIC 3a28 0 google_breakpad::MinidumpDescriptor::UpdatePath() [clone .cold]
PUBLIC 3a40 0 google_breakpad::WriteMicrodump(int, void const*, unsigned long, std::__cxx11::list<google_breakpad::MappingEntry, std::allocator<google_breakpad::MappingEntry> > const&, bool, unsigned long, bool, google_breakpad::MicrodumpExtraInfo const&) [clone .cold]
PUBLIC 3a70 0 google_breakpad::LinuxDumper::EnumerateMappings() [clone .cold]
PUBLIC 3a86 0 google_breakpad::(anonymous namespace)::ElfFileSoName(google_breakpad::LinuxDumper const&, google_breakpad::MappingInfo const&, char*, unsigned long) [clone .cold]
PUBLIC 3a96 0 google_breakpad::LinuxDumper::ElfFileIdentifierForMapping(google_breakpad::MappingInfo const&, bool, unsigned int, google_breakpad::wasteful_vector<unsigned char>&) [clone .cold]
PUBLIC 3aa6 0 google_breakpad::LinuxDumper::LinuxDumper(int, char const*) [clone .cold]
PUBLIC 3afc 0 google_breakpad::LinuxPtraceDumper::EnumerateThreads() [clone .cold]
PUBLIC 3b16 0 google_breakpad::LinuxPtraceDumper::GetThreadInfoByIndex(unsigned long, google_breakpad::ThreadInfo*) [clone .cold]
PUBLIC 3b6e 0 (anonymous namespace)::MinidumpWriter::WriteFile(MDLocationDescriptor*, char const*) [clone .cold]
PUBLIC 3bae 0 (anonymous namespace)::MinidumpWriter::FillRawModule(google_breakpad::MappingInfo const&, bool, unsigned int, MDRawModule*, unsigned char const*) [clone .cold]
PUBLIC 3bdc 0 (anonymous namespace)::MinidumpWriter::WriteThreadListStream(MDRawDirectory*) [clone .cold]
PUBLIC 3c46 0 (anonymous namespace)::MinidumpWriter::Dump() [clone .cold]
PUBLIC 3dfc 0 google_breakpad::WriteMinidump(char const*, std::__cxx11::list<google_breakpad::MappingEntry, std::allocator<google_breakpad::MappingEntry> > const&, std::__cxx11::list<google_breakpad::AppMemory, std::allocator<google_breakpad::AppMemory> > const&, google_breakpad::LinuxDumper*) [clone .cold]
PUBLIC 3e0c 0 (anonymous namespace)::WriteMinidumpImpl(char const*, int, long, int, void const*, unsigned long, std::__cxx11::list<google_breakpad::MappingEntry, std::allocator<google_breakpad::MappingEntry> > const&, std::__cxx11::list<google_breakpad::AppMemory, std::allocator<google_breakpad::AppMemory> > const&, bool, unsigned long, bool) [clone .cold]
PUBLIC 3e3a 0 google_breakpad::WriteMinidump(char const*, int, void const*, unsigned long, bool, unsigned long, bool) [clone .cold]
PUBLIC 3e52 0 google_breakpad::WriteMinidump(int, int, void const*, unsigned long, bool, unsigned long, bool) [clone .cold]
PUBLIC 3e6a 0 google_breakpad::WriteMinidump(char const*, int, int) [clone .cold]
PUBLIC 3ea5 0 google_breakpad::UTF16ToUTF8[abi:cxx11](std::vector<unsigned short, std::allocator<unsigned short> > const&, bool) [clone .cold]
PUBLIC 3ec8 0 google_breakpad::elf::bytes_to_hex_string(unsigned char const*, unsigned long) [clone .cold]
PUBLIC 3ed8 0 google_breakpad::elf::FileID::ElfFileIdentifierFromMappedFile(void const*, google_breakpad::wasteful_vector<unsigned char>&) [clone .cold]
PUBLIC 3f1c 0 google_breakpad::elf::FileID::ElfFileIdentifier(google_breakpad::wasteful_vector<unsigned char>&) [clone .cold]
PUBLIC 3f2c 0 google_breakpad::ConvertUTF8toUTF16(unsigned char const**, unsigned char const*, unsigned short**, unsigned short*, google_breakpad::ConversionFlags) [clone .cold]
PUBLIC 3f33 0 google_breakpad::ConvertUTF8toUTF32(unsigned char const**, unsigned char const*, unsigned long**, unsigned long*, google_breakpad::ConversionFlags) [clone .cold]
PUBLIC 3f40 0 _start
PUBLIC 3f70 0 deregister_tm_clones
PUBLIC 3fa0 0 register_tm_clones
PUBLIC 3fe0 0 __do_global_dtors_aux
PUBLIC 4020 0 frame_dummy
PUBLIC 4cf0 0 google_breakpad::ExceptionHandler::GenerateDump(google_breakpad::ExceptionHandler::CrashContext*)
PUBLIC 5bc0 0 google_breakpad::ExceptionHandler::WriteMinidumpForChild(int, int, std::__cxx11::basic_string<char, std::char_traits<char>, std::allocator<char> > const&, bool (*)(google_breakpad::MinidumpDescriptor const&, void*, bool), void*)
PUBLIC 5e30 0 google_breakpad::ExceptionHandler::ExceptionHandler(google_breakpad::MinidumpDescriptor const&, bool (*)(void*), bool (*)(google_breakpad::MinidumpDescriptor const&, void*, bool), void*, bool, int)
PUBLIC 6140 0 google_breakpad::ExceptionHandler::WriteMinidump(std::__cxx11::basic_string<char, std::char_traits<char>, std::allocator<char> > const&, bool (*)(google_breakpad::MinidumpDescriptor const&, void*, bool), void*)
PUBLIC 66a0 0 google_breakpad::MinidumpDescriptor::UpdatePath()
PUBLIC 7090 0 google_breakpad::WriteMicrodump(int, void const*, unsigned long, std::__cxx11::list<google_breakpad::MappingEntry, std::allocator<google_breakpad::MappingEntry> > const&, bool, unsigned long, bool, google_breakpad::MicrodumpExtraInfo const&)
PUBLIC 8080 0 google_breakpad::LinuxDumper::EnumerateMappings()
PUBLIC 8d80 0 google_breakpad::(anonymous namespace)::ElfFileSoName(google_breakpad::LinuxDumper const&, google_breakpad::MappingInfo const&, char*, unsigned long)
PUBLIC 96c0 0 google_breakpad::LinuxDumper::ElfFileIdentifierForMapping(google_breakpad::MappingInfo const&, bool, unsigned int, google_breakpad::wasteful_vector<unsigned char>&)
PUBLIC 9a20 0 google_breakpad::LinuxDumper::LinuxDumper(int, char const*)
PUBLIC a620 0 google_breakpad::LinuxPtraceDumper::EnumerateThreads()
PUBLIC ae60 0 google_breakpad::LinuxPtraceDumper::GetThreadInfoByIndex(unsigned long, google_breakpad::ThreadInfo*)
PUBLIC b950 0 (anonymous namespace)::MinidumpWriter::WriteFile(MDLocationDescriptor*, char const*)
PUBLIC bd90 0 (anonymous namespace)::MinidumpWriter::FillRawModule(google_breakpad::MappingInfo const&, bool, unsigned int, MDRawModule*, unsigned char const*)
PUBLIC c440 0 (anonymous namespace)::MinidumpWriter::WriteThreadListStream(MDRawDirectory*)
PUBLIC d250 0 (anonymous namespace)::MinidumpWriter::Dump()
PUBLIC ef40 0 google_breakpad::WriteMinidump(char const*, std::__cxx11::list<google_breakpad::MappingEntry, std::allocator<google_breakpad::MappingEntry> > const&, std::__cxx11::list<google_breakpad::AppMemory, std::allocator<google_breakpad::AppMemory> > const&, google_breakpad::LinuxDumper*)
PUBLIC f260 0 (anonymous namespace)::WriteMinidumpImpl(char const*, int, long, int, void const*, unsigned long, std::__cxx11::list<google_breakpad::MappingEntry, std::allocator<google_breakpad::MappingEntry> > const&, std::__cxx11::list<google_breakpad::AppMemory, std::allocator<google_breakpad::AppMemory> > const&, bool, unsigned long, bool)
PUBLIC f780 0 google_breakpad::WriteMinidump(char const*, int, void const*, unsigned long, bool, unsigned long, bool)
PUBLIC f880 0 google_breakpad::WriteMinidump(int, int, void const*, unsigned long, bool, unsigned long, bool)
PUBLIC f980 0 google_breakpad::WriteMinidump(char const*, int, int)
PUBLIC 11430 0 google_breakpad::UTF16ToUTF8[abi:cxx11](std::vector<unsigned short, std::allocator<unsigned short> > const&, bool)
PUBLIC 12870 0 google_breakpad::elf::bytes_to_hex_string(unsigned char const*, unsigned long)
PUBLIC 12e50 0 google_breakpad::elf::FileID::ElfFileIdentifierFromMappedFile(void const*, google_breakpad::wasteful_vector<unsigned char>&)
PUBLIC 13120 0 google_breakpad::elf::FileID::ElfFileIdentifier(google_breakpad::wasteful_vector<unsigned char>&)
PUBLIC 14b30 0 google_breakpad::ConvertUTF8toUTF16(unsigned char const**, unsigned char const*, unsigned short**, unsigned short*, google_breakpad::ConversionFlags)
PUBLIC 14f80 0 google_breakpad::ConvertUTF8toUTF32(unsigned char const**, unsigned char const*, unsigned long**, unsigned long*, google_breakpad::ConversionFlags)
PUBLIC 151f0 0 _fini
STACK CFI INIT 3f40 26 .cfa: $rsp 8 + .ra: .cfa -8 + ^
STACK CFI INIT 3020 490 .cfa: $rsp 16 + .ra: .cfa -8 + ^
STACK CFI 3026 .cfa: $rsp 24 +
STACK CFI INIT 34b0 10 .cfa: $rsp 8 + .ra: .cfa -8 + ^
STACK CFI INIT 34c0 480 .cfa: $rsp 8 + .ra: .cfa -8 + ^
STACK CFI INIT 421e 3e .cfa: $rsp 8 + .ra: .cfa -8 + ^
STACK CFI 4223 $rbp: .cfa -16 + ^ .cfa: $rsp 16 +
STACK CFI 4226 .cfa: $rbp 16 +
STACK CFI 425b .cfa: $rsp 8 +
STACK CFI INIT 425c 3e .cfa: $rsp 8 + .ra: .cfa -8 + ^
STACK CFI 4261 $rbp: .cfa -16 + ^ .cfa: $rsp 16 +
STACK CFI 4264 .cfa: $rbp 16 +
STACK CFI 4299 .cfa: $rsp 8 +
STACK CFI INIT 429a d2 .cfa: $rsp 8 + .ra: .cfa -8 + ^
STACK CFI 429f $rbp: .cfa -16 + ^ .cfa: $rsp 16 +
STACK CFI 42a2 .cfa: $rbp 16 +
STACK CFI 436b .cfa: $rsp 8 +
STACK CFI INIT 436c 16 .cfa: $rsp 8 + .ra: .cfa -8 + ^
STACK CFI 4371 $rbp: .cfa -16 + ^ .cfa: $rsp 16 +
STACK CFI 4374 .cfa: $rbp 16 +
STACK CFI 4381 .cfa: $rsp 8 +
STACK CFI INIT 4029 42 .cfa: $rsp 8 + .ra: .cfa -8 + ^
STACK CFI 402e $rbp: .cfa -16 + ^ .cfa: $rsp 16 +
STACK CFI 4031 .cfa: $rbp 16 +
STACK CFI 406a .cfa: $rsp 8 +
STACK CFI INIT 406b 1d .cfa: $rsp 8 + .ra: .cfa -8 + ^
STACK CFI 4070 $rbp: .cfa -16 + ^ .cfa: $rsp 16 +
STACK CFI 4073 .cfa: $rbp 16 +
STACK CFI 4087 .cfa: $rsp 8 +
STACK CFI INIT 4382 33 .cfa: $rsp 8 + .ra: .cfa -8 + ^
STACK CFI 4387 $rbp: .cfa -16 + ^ .cfa: $rsp 16 +
STACK CFI 438a .cfa: $rbp 16 +
STACK CFI 43b4 .cfa: $rsp 8 +
STACK CFI INIT 4088 196 .cfa: $rsp 8 + .ra: .cfa -8 + ^
STACK CFI 408d $rbp: .cfa -16 + ^ .cfa: $rsp 16 +
STACK CFI 4090 .cfa: $rbp 16 +
STACK CFI 4098 $rbx: .cfa -24 + ^
STACK CFI 421d .cfa: $rsp 8 +
STACK CFI INIT 43b5 25 .cfa: $rsp 8 + .ra: .cfa -8 + ^
STACK CFI 43ba $rbp: .cfa -16 + ^ .cfa: $rsp 16 +
STACK CFI 43bd .cfa: $rbp 16 +
STACK CFI 43d9 .cfa: $rsp 8 +
STACK CFI INIT 43da 6d .cfa: $rsp 8 + .ra: .cfa -8 + ^
STACK CFI 43df $rbp: .cfa -16 + ^ .cfa: $rsp 16 +
STACK CFI 43e2 .cfa: $rbp 16 +
STACK CFI 4446 .cfa: $rsp 8 +
STACK CFI INIT 4448 1f .cfa: $rsp 8 + .ra: .cfa -8 + ^
STACK CFI 444d $rbp: .cfa -16 + ^ .cfa: $rsp 16 +
STACK CFI 4450 .cfa: $rbp 16 +
STACK CFI 4466 .cfa: $rsp 8 +
STACK CFI INIT 4468 c3 .cfa: $rsp 8 + .ra: .cfa -8 + ^
STACK CFI 446d $rbp: .cfa -16 + ^ .cfa: $rsp 16 +
STACK CFI 4470 .cfa: $rbp 16 +
STACK CFI 4475 $rbx: .cfa -24 + ^
STACK CFI 452a .cfa: $rsp 8 +
STACK CFI INIT 452b 35 .cfa: $rsp 8 + .ra: .cfa -8 + ^
STACK CFI 4530 $rbp: .cfa -16 + ^ .cfa: $rsp 16 +
STACK CFI 4533 .cfa: $rbp 16 +
STACK CFI 455f .cfa: $rsp 8 +
STACK CFI INIT 4560 145 .cfa: $rsp 8 + .ra: .cfa -8 + ^
STACK CFI 4565 $rbp: .cfa -16 + ^ .cfa: $rsp 16 +
STACK CFI 4568 .cfa: $rbp 16 +
STACK CFI 456d $rbx: .cfa -24 + ^
STACK CFI 46a4 .cfa: $rsp 8 +
STACK CFI INIT 46a5 16 .cfa: $rsp 8 + .ra: .cfa -8 + ^
STACK CFI 46aa $rbp: .cfa -16 + ^ .cfa: $rsp 16 +
STACK CFI 46ad .cfa: $rbp 16 +
STACK CFI 46ba .cfa: $rsp 8 +
STACK CFI INIT 46bb e .cfa: $rsp 8 + .ra: .cfa -8 + ^
STACK CFI 46c0 $rbp: .cfa -16 + ^ .cfa: $rsp 16 +
STACK CFI 46c3 .cfa: $rbp 16 +
STACK CFI 46c8 .cfa: $rsp 8 +
STACK CFI INIT 46c9 1a .cfa: $rsp 8 + .ra: .cfa -8 + ^
STACK CFI 46ce $rbp: .cfa -16 + ^ .cfa: $rsp 16 +
STACK CFI 46d1 .cfa: $rbp 16 +
STACK CFI 46e2 .cfa: $rsp 8 +
STACK CFI INIT 46f0 143 .cfa: $rsp 8 + .ra: .cfa -8 + ^
STACK CFI 46f6 $r14: .cfa -16 + ^ .cfa: $rsp 16 +
STACK CFI 46f8 $r13: .cfa -24 + ^ .cfa: $rsp 24 +
STACK CFI 46fa $r12: .cfa -32 + ^ .cfa: $rsp 32 +
STACK CFI 46fb $rbp: .cfa -40 + ^ .cfa: $rsp 40 +
STACK CFI 46fc $rbx: .cfa -48 + ^ .cfa: $rsp 48 +
STACK CFI 4703 .cfa: $rsp 208 +
STACK CFI 478e .cfa: $rsp 48 +
STACK CFI 478f .cfa: $rsp 40 +
STACK CFI 4790 .cfa: $rsp 32 +
STACK CFI 4792 .cfa: $rsp 24 +
STACK CFI 4794 .cfa: $rsp 16 +
STACK CFI 4796 .cfa: $rsp 8 +
STACK CFI 47a0 .cfa: $rsp 208 +
STACK CFI INIT 4840 99 .cfa: $rsp 8 + .ra: .cfa -8 + ^
STACK CFI 4853 $r13: .cfa -16 + ^ .cfa: $rsp 16 +
STACK CFI 4855 $r12: .cfa -24 + ^ .cfa: $rsp 24 +
STACK CFI 485c $rbp: .cfa -32 + ^ .cfa: $rsp 32 +
STACK CFI 4864 $rbx: .cfa -40 + ^ .cfa: $rsp 40 +
STACK CFI 4876 .cfa: $rsp 48 +
STACK CFI 48cb .cfa: $rsp 40 +
STACK CFI 48cc .cfa: $rsp 32 +
STACK CFI 48cd .cfa: $rsp 24 +
STACK CFI 48cf .cfa: $rsp 16 +
STACK CFI 48d1 .cfa: $rsp 8 +
STACK CFI 48d8 $r12: $r12 $r13: $r13 $rbp: $rbp $rbx: $rbx
STACK CFI INIT 48e0 327 .cfa: $rsp 8 + .ra: .cfa -8 + ^
STACK CFI 48e6 $r12: .cfa -16 + ^ .cfa: $rsp 16 +
STACK CFI 48e7 $rbp: .cfa -24 + ^ .cfa: $rsp 24 +
STACK CFI 48ef $rbx: .cfa -32 + ^ .cfa: $rsp 32 +
STACK CFI 48f9 .cfa: $rsp 96 +
STACK CFI 4a72 .cfa: $rsp 32 +
STACK CFI 4a73 .cfa: $rsp 24 +
STACK CFI 4a74 .cfa: $rsp 16 +
STACK CFI 4a76 .cfa: $rsp 8 +
STACK CFI 4a80 .cfa: $rsp 96 +
STACK CFI 4a98 .cfa: $rsp 32 +
STACK CFI 4a99 .cfa: $rsp 24 +
STACK CFI 4a9a .cfa: $rsp 16 +
STACK CFI 4a9c .cfa: $rsp 8 +
STACK CFI 4aa0 .cfa: $rsp 96 +
STACK CFI INIT 4c10 d5 .cfa: $rsp 8 + .ra: .cfa -8 + ^
STACK CFI 4c16 $r13: .cfa -16 + ^ .cfa: $rsp 16 +
STACK CFI 4c24 $r12: .cfa -24 + ^ .cfa: $rsp 24 +
STACK CFI 4c2b $rbp: .cfa -32 + ^ .cfa: $rsp 32 +
STACK CFI 4c2c $rbx: .cfa -40 + ^ .cfa: $rsp 40 +
STACK CFI 4c33 .cfa: $rsp 48 +
STACK CFI 4c50 .cfa: $rsp 40 +
STACK CFI 4c51 .cfa: $rsp 32 +
STACK CFI 4c52 .cfa: $rsp 24 +
STACK CFI 4c54 .cfa: $rsp 16 +
STACK CFI 4c56 .cfa: $rsp 8 +
STACK CFI 4c60 .cfa: $rsp 48 +
STACK CFI 4ca5 .cfa: $rsp 40 +
STACK CFI 4cb2 .cfa: $rsp 32 +
STACK CFI 4cb3 .cfa: $rsp 24 +
STACK CFI 4cb5 .cfa: $rsp 16 +
STACK CFI 4cb7 .cfa: $rsp 8 +
STACK CFI 4cc0 .cfa: $rsp 48 +
STACK CFI INIT 4cf0 4b9 .cfa: $rsp 8 + .ra: .cfa -8 + ^
STACK CFI 4cf6 $r15: .cfa -16 + ^ .cfa: $rsp 16 +
STACK CFI 4cf8 $r14: .cfa -24 + ^ .cfa: $rsp 24 +
STACK CFI 4cfa $r13: .cfa -32 + ^ .cfa: $rsp 32 +
STACK CFI 4cff $r12: .cfa -40 + ^ .cfa: $rsp 40 +
STACK CFI 4d00 $rbp: .cfa -48 + ^ .cfa: $rsp 48 +
STACK CFI 4d04 $rbx: .cfa -56 + ^ .cfa: $rsp 56 +
STACK CFI 4d08 .cfa: $rsp 160 +
STACK CFI 4d45 .cfa: $rsp 56 +
STACK CFI 4d46 .cfa: $rsp 48 +
STACK CFI 4d47 .cfa: $rsp 40 +
STACK CFI 4d49 .cfa: $rsp 32 +
STACK CFI 4d4b .cfa: $rsp 24 +
STACK CFI 4d4d .cfa: $rsp 16 +
STACK CFI 4d4f .cfa: $rsp 8 +
STACK CFI 4d58 .cfa: $rsp 160 +
STACK CFI 4dd5 .cfa: $rsp 56 +
STACK CFI 4dd9 .cfa: $rsp 48 +
STACK CFI 4dda .cfa: $rsp 40 +
STACK CFI 4ddc .cfa: $rsp 32 +
STACK CFI 4dde .cfa: $rsp 24 +
STACK CFI 4de0 .cfa: $rsp 16 +
STACK CFI 4de2 .cfa: $rsp 8 +
STACK CFI 4de8 .cfa: $rsp 160 +
STACK CFI INIT 3940 3a $r12: .cfa -40 + ^ $r13: .cfa -32 + ^ $r14: .cfa -24 + ^ $r15: .cfa -16 + ^ $rbp: .cfa -48 + ^ $rbx: .cfa -56 + ^ .cfa: $rsp 160 + .ra: .cfa -8 + ^
STACK CFI INIT 51b0 193 .cfa: $rsp 8 + .ra: .cfa -8 + ^
STACK CFI 51b6 $r13: .cfa -16 + ^ .cfa: $rsp 16 +
STACK CFI 51b8 $r12: .cfa -24 + ^ .cfa: $rsp 24 +
STACK CFI 51bc $rbp: .cfa -32 + ^ .cfa: $rsp 32 +
STACK CFI 51c0 $rbx: .cfa -40 + ^ .cfa: $rsp 40 +
STACK CFI 51c7 .cfa: $rsp 48 +
STACK CFI 52cf .cfa: $rsp 40 +
STACK CFI 52d6 .cfa: $rsp 32 +
STACK CFI 52d7 .cfa: $rsp 24 +
STACK CFI 52d9 .cfa: $rsp 16 +
STACK CFI 52db .cfa: $rsp 8 +
STACK CFI 52e0 .cfa: $rsp 48 +
STACK CFI 533c .cfa: $rsp 40 +
STACK CFI 533d .cfa: $rsp 32 +
STACK CFI 533e .cfa: $rsp 24 +
STACK CFI 5340 .cfa: $rsp 16 +
STACK CFI 5342 .cfa: $rsp 8 +
STACK CFI INIT 5350 1f6 .cfa: $rsp 8 + .ra: .cfa -8 + ^
STACK CFI 5356 $r15: .cfa -16 + ^ .cfa: $rsp 16 +
STACK CFI 5358 $r14: .cfa -24 + ^ .cfa: $rsp 24 +
STACK CFI 535a $r13: .cfa -32 + ^ .cfa: $rsp 32 +
STACK CFI 535c $r12: .cfa -40 + ^ .cfa: $rsp 40 +
STACK CFI 5360 $rbp: .cfa -48 + ^ .cfa: $rsp 48 +
STACK CFI 5363 $rbx: .cfa -56 + ^ .cfa: $rsp 56 +
STACK CFI 536d .cfa: $rsp 224 +
STACK CFI 545b .cfa: $rsp 56 +
STACK CFI 545c .cfa: $rsp 48 +
STACK CFI 545d .cfa: $rsp 40 +
STACK CFI 545f .cfa: $rsp 32 +
STACK CFI 5461 .cfa: $rsp 24 +
STACK CFI 5463 .cfa: $rsp 16 +
STACK CFI 5465 .cfa: $rsp 8 +
STACK CFI 5470 .cfa: $rsp 224 +
STACK CFI INIT 5550 87 .cfa: $rsp 8 + .ra: .cfa -8 + ^
STACK CFI 555b .cfa: $rsp 1136 +
STACK CFI 55d1 .cfa: $rsp 8 +
STACK CFI 55d2 .cfa: $rsp 1136 +
STACK CFI INIT 55e0 f5 .cfa: $rsp 8 + .ra: .cfa -8 + ^
STACK CFI 55e6 $r13: .cfa -16 + ^ .cfa: $rsp 16 +
STACK CFI 55ed $r12: .cfa -24 + ^ .cfa: $rsp 24 +
STACK CFI 55f1 $rbp: .cfa -32 + ^ .cfa: $rsp 32 +
STACK CFI 55f2 $rbx: .cfa -40 + ^ .cfa: $rsp 40 +
STACK CFI 55f9 .cfa: $rsp 80 +
STACK CFI 5643 .cfa: $rsp 40 +
STACK CFI 5644 .cfa: $rsp 32 +
STACK CFI 5645 .cfa: $rsp 24 +
STACK CFI 5647 .cfa: $rsp 16 +
STACK CFI 5649 .cfa: $rsp 8 +
STACK CFI 5650 .cfa: $rsp 80 +
STACK CFI INIT 56e0 ba .cfa: $rsp 8 + .ra: .cfa -8 + ^
STACK CFI 56e6 $r12: .cfa -16 + ^ .cfa: $rsp 16 +
STACK CFI 56f0 $rbp: .cfa -24 + ^ .cfa: $rsp 24 +
STACK CFI 56fb $rbx: .cfa -32 + ^ .cfa: $rsp 32 +
STACK CFI 572b .cfa: $rsp 40 +
STACK CFI 5730 .cfa: $rsp 48 +
STACK CFI 5738 .cfa: $rsp 56 +
STACK CFI 5742 .cfa: $rsp 64 +
STACK CFI 574b .cfa: $rsp 32 +
STACK CFI 574c .cfa: $rsp 24 +
STACK CFI 574d .cfa: $rsp 16 +
STACK CFI 574f .cfa: $rsp 8 +
STACK CFI 5750 .cfa: $rsp 32 +
STACK CFI 5755 .cfa: $rsp 40 +
STACK CFI 575a .cfa: $rsp 48 +
STACK CFI 5762 .cfa: $rsp 56 +
STACK CFI 576c .cfa: $rsp 64 +
STACK CFI 5775 .cfa: $rsp 32 +
STACK CFI 5776 .cfa: $rsp 24 +
STACK CFI 5777 .cfa: $rsp 16 +
STACK CFI 5779 .cfa: $rsp 8 +
STACK CFI 5780 .cfa: $rsp 32 +
STACK CFI 578a .cfa: $rsp 40 +
STACK CFI 578b .cfa: $rsp 48 +
STACK CFI 5794 .cfa: $rsp 40 +
STACK CFI 5795 .cfa: $rsp 32 +
STACK CFI 5796 .cfa: $rsp 24 +
STACK CFI 5797 .cfa: $rsp 16 +
STACK CFI 5799 .cfa: $rsp 8 +
STACK CFI INIT 57a0 82 .cfa: $rsp 8 + .ra: .cfa -8 + ^
STACK CFI 57a5 $rbp: .cfa -16 + ^ .cfa: $rsp 16 +
STACK CFI 57a6 $rbx: .cfa -24 + ^ .cfa: $rsp 24 +
STACK CFI 57ad .cfa: $rsp 32 +
STACK CFI 5819 .cfa: $rsp 24 +
STACK CFI 581d .cfa: $rsp 16 +
STACK CFI 581e .cfa: $rsp 8 +
STACK CFI INIT 5830 1b5 .cfa: $rsp 8 + .ra: .cfa -8 + ^
STACK CFI 5835 $rbx: .cfa -16 + ^ .cfa: $rsp 16 +
STACK CFI 583c .cfa: $rsp 1664 +
STACK CFI 58c8 .cfa: $rsp 16 +
STACK CFI 58c9 .cfa: $rsp 8 +
STACK CFI 58d0 .cfa: $rsp 1664 +
STACK CFI INIT 59f0 d8 .cfa: $rsp 8 + .ra: .cfa -8 + ^
STACK CFI 59f6 $r12: .cfa -16 + ^ .cfa: $rsp 16 +
STACK CFI 59f7 $rbp: .cfa -24 + ^ .cfa: $rsp 24 +
STACK CFI 5a00 $rbx: .cfa -32 + ^ .cfa: $rsp 32 +
STACK CFI 5a0a .cfa: $rsp 672 +
STACK CFI 5abe .cfa: $rsp 32 +
STACK CFI 5abf .cfa: $rsp 24 +
STACK CFI 5ac0 .cfa: $rsp 16 +
STACK CFI 5ac2 .cfa: $rsp 8 +
STACK CFI 5ac3 .cfa: $rsp 672 +
STACK CFI INIT 5ad0 81 .cfa: $rsp 8 + .ra: .cfa -8 + ^
STACK CFI 5ad6 $r13: .cfa -16 + ^ .cfa: $rsp 16 +
STACK CFI 5adb $r12: .cfa -24 + ^ .cfa: $rsp 24 +
STACK CFI 5adf $rbp: .cfa -32 + ^ .cfa: $rsp 32 +
STACK CFI 5ae7 $rbx: .cfa -40 + ^ .cfa: $rsp 40 +
STACK CFI 5aee .cfa: $rsp 48 +
STACK CFI 5b17 .cfa: $rsp 40 +
STACK CFI 5b18 .cfa: $rsp 32 +
STACK CFI 5b19 .cfa: $rsp 24 +
STACK CFI 5b1b .cfa: $rsp 16 +
STACK CFI 5b1d .cfa: $rsp 8 +
STACK CFI 5b20 .cfa: $rsp 48 +
STACK CFI 5b4a .cfa: $rsp 40 +
STACK CFI 5b4b .cfa: $rsp 32 +
STACK CFI 5b4c .cfa: $rsp 24 +
STACK CFI 5b4e .cfa: $rsp 16 +
STACK CFI 5b50 .cfa: $rsp 8 +
STACK CFI INIT 5b60 5a .cfa: $rsp 8 + .ra: .cfa -8 + ^
STACK CFI 5b65 $rbp: .cfa -16 + ^ .cfa: $rsp 16 +
STACK CFI 5bad .cfa: $rsp 8 +
STACK CFI 5bb8 .cfa: $rsp 16 +
STACK CFI 5bb9 .cfa: $rsp 8 +
STACK CFI INIT 5bc0 252 .cfa: $rsp 8 + .ra: .cfa -8 + ^
STACK CFI 5bc6 $r15: .cfa -16 + ^ .cfa: $rsp 16 +
STACK CFI 5bcb $r14: .cfa -24 + ^ .cfa: $rsp 24 +
STACK CFI 5bcd $r13: .cfa -32 + ^ .cfa: $rsp 32 +
STACK CFI 5bcf $r12: .cfa -40 + ^ .cfa: $rsp 40 +
STACK CFI 5bd3 $rbp: .cfa -48 + ^ .cfa: $rsp 48 +
STACK CFI 5bd6 $rbx: .cfa -56 + ^ .cfa: $rsp 56 +
STACK CFI 5be0 .cfa: $rsp 240 +
STACK CFI 5d53 .cfa: $rsp 56 +
STACK CFI 5d57 .cfa: $rsp 48 +
STACK CFI 5d58 .cfa: $rsp 40 +
STACK CFI 5d5a .cfa: $rsp 32 +
STACK CFI 5d5c .cfa: $rsp 24 +
STACK CFI 5d5e .cfa: $rsp 16 +
STACK CFI 5d60 .cfa: $rsp 8 +
STACK CFI 5d68 .cfa: $rsp 240 +
STACK CFI INIT 397a 1c $r12: .cfa -40 + ^ $r13: .cfa -32 + ^ $r14: .cfa -24 + ^ $r15: .cfa -16 + ^ $rbp: .cfa -48 + ^ $rbx: .cfa -56 + ^ .cfa: $rsp 240 + .ra: .cfa -8 + ^
STACK CFI INIT 5e20 c .cfa: $rsp 8 + .ra: .cfa -8 + ^
STACK CFI INIT 63c0 167 .cfa: $rsp 8 + .ra: .cfa -8 + ^
STACK CFI 63c6 $r15: .cfa -16 + ^ .cfa: $rsp 16 +
STACK CFI 63d5 $r14: .cfa -24 + ^ .cfa: $rsp 24 +
STACK CFI 63d7 $r13: .cfa -32 + ^ .cfa: $rsp 32 +
STACK CFI 63d9 $r12: .cfa -40 + ^ .cfa: $rsp 40 +
STACK CFI 63da $rbp: .cfa -48 + ^ .cfa: $rsp 48 +
STACK CFI 63db $rbx: .cfa -56 + ^ .cfa: $rsp 56 +
STACK CFI 63df .cfa: $rsp 80 +
STACK CFI 6467 .cfa: $rsp 56 +
STACK CFI 6468 .cfa: $rsp 48 +
STACK CFI 6469 .cfa: $rsp 40 +
STACK CFI 646b .cfa: $rsp 32 +
STACK CFI 646d .cfa: $rsp 24 +
STACK CFI 646f .cfa: $rsp 16 +
STACK CFI 6471 .cfa: $rsp 8 +
STACK CFI 6478 .cfa: $rsp 80 +
STACK CFI INIT 5e30 30a .cfa: $rsp 8 + .ra: .cfa -8 + ^
STACK CFI 5e36 $r15: .cfa -16 + ^ .cfa: $rsp 16 +
STACK CFI 5e3c $r14: .cfa -24 + ^ .cfa: $rsp 24 +
STACK CFI 5e3e $r13: .cfa -32 + ^ .cfa: $rsp 32 +
STACK CFI 5e40 $r12: .cfa -40 + ^ .cfa: $rsp 40 +
STACK CFI 5e41 $rbp: .cfa -48 + ^ .cfa: $rsp 48 +
STACK CFI 5e45 $rbx: .cfa -56 + ^ .cfa: $rsp 56 +
STACK CFI 5e4c .cfa: $rsp 80 +
STACK CFI 5f68 .cfa: $rsp 56 +
STACK CFI 5f6c .cfa: $rsp 48 +
STACK CFI 5f6d .cfa: $rsp 40 +
STACK CFI 5f6f .cfa: $rsp 32 +
STACK CFI 5f71 .cfa: $rsp 24 +
STACK CFI 5f73 .cfa: $rsp 16 +
STACK CFI 5f75 .cfa: $rsp 8 +
STACK CFI 5f80 .cfa: $rsp 80 +
STACK CFI INIT 3996 65 $r12: .cfa -40 + ^ $r13: .cfa -32 + ^ $r14: .cfa -24 + ^ $r15: .cfa -16 + ^ $rbp: .cfa -48 + ^ $rbx: .cfa -56 + ^ .cfa: $rsp 80 + .ra: .cfa -8 + ^
STACK CFI INIT 6140 27c .cfa: $rsp 8 + .ra: .cfa -8 + ^
STACK CFI 6145 $rbp: .cfa -16 + ^ .cfa: $rsp 16 +
STACK CFI 6148 .cfa: $rbp 16 +
STACK CFI 614a $r15: .cfa -24 + ^
STACK CFI 614f $r14: .cfa -32 + ^
STACK CFI 6157 $r12: .cfa -48 + ^ $r13: .cfa -40 + ^ $rbx: .cfa -56 + ^
STACK CFI 6302 .cfa: $rsp 8 +
STACK CFI 6308 .cfa: $rbp 16 +
STACK CFI INIT 39fc 2b $r12: .cfa -48 + ^ $r13: .cfa -40 + ^ $r14: .cfa -32 + ^ $r15: .cfa -24 + ^ $rbp: .cfa -16 + ^ $rbx: .cfa -56 + ^ .cfa: $rbp 16 + .ra: .cfa -8 + ^
STACK CFI INIT 6530 c0 .cfa: $rsp 8 + .ra: .cfa -8 + ^
STACK CFI 6532 $r12: .cfa -16 + ^ .cfa: $rsp 16 +
STACK CFI 6536 $rbp: .cfa -24 + ^ .cfa: $rsp 24 +
STACK CFI 653a $rbx: .cfa -32 + ^ .cfa: $rsp 32 +
STACK CFI 6541 .cfa: $rsp 48 +
STACK CFI 659f .cfa: $rsp 32 +
STACK CFI 65a0 .cfa: $rsp 24 +
STACK CFI 65a1 .cfa: $rsp 16 +
STACK CFI 65a3 .cfa: $rsp 8 +
STACK CFI 65a8 .cfa: $rsp 48 +
STACK CFI INIT 65f0 a6 .cfa: $rsp 8 + .ra: .cfa -8 + ^
STACK CFI 65f5 $rbp: .cfa -16 + ^ .cfa: $rsp 16 +
STACK CFI 65f9 $rbx: .cfa -24 + ^ .cfa: $rsp 24 +
STACK CFI 6604 .cfa: $rsp 32 +
STACK CFI 6674 .cfa: $rsp 24 +
STACK CFI 6675 .cfa: $rsp 16 +
STACK CFI 6676 .cfa: $rsp 8 +
STACK CFI 6677 .cfa: $rsp 32 +
STACK CFI INIT 66a0 395 .cfa: $rsp 8 + .ra: .cfa -8 + ^
STACK CFI 66a6 $r14: .cfa -16 + ^ .cfa: $rsp 16 +
STACK CFI 66a8 $r13: .cfa -24 + ^ .cfa: $rsp 24 +
STACK CFI 66aa $r12: .cfa -32 + ^ .cfa: $rsp 32 +
STACK CFI 66ab $rbp: .cfa -40 + ^ .cfa: $rsp 40 +
STACK CFI 66ac $rbx: .cfa -48 + ^ .cfa: $rsp 48 +
STACK CFI 66b3 .cfa: $rsp 208 +
STACK CFI 690d .cfa: $rsp 48 +
STACK CFI 690e .cfa: $rsp 40 +
STACK CFI 690f .cfa: $rsp 32 +
STACK CFI 6911 .cfa: $rsp 24 +
STACK CFI 6913 .cfa: $rsp 16 +
STACK CFI 6915 .cfa: $rsp 8 +
STACK CFI 6920 .cfa: $rsp 208 +
STACK CFI INIT 3a28 18 $r12: .cfa -32 + ^ $r13: .cfa -24 + ^ $r14: .cfa -16 + ^ $rbp: .cfa -40 + ^ $rbx: .cfa -48 + ^ .cfa: $rsp 208 + .ra: .cfa -8 + ^
STACK CFI INIT 6a40 c2 .cfa: $rsp 8 + .ra: .cfa -8 + ^
STACK CFI 6a46 $r12: .cfa -16 + ^ .cfa: $rsp 16 +
STACK CFI 6a47 $rbx: .cfa -24 + ^ .cfa: $rsp 24 +
STACK CFI 6a4b .cfa: $rsp 32 +
STACK CFI 6adf .cfa: $rsp 24 +
STACK CFI 6ae0 .cfa: $rsp 16 +
STACK CFI 6ae2 .cfa: $rsp 8 +
STACK CFI 6ae3 .cfa: $rsp 32 +
STACK CFI INIT 6b10 40 .cfa: $rsp 8 + .ra: .cfa -8 + ^
STACK CFI 6b20 $rbx: .cfa -16 + ^ .cfa: $rsp 16 +
STACK CFI 6b38 .cfa: $rsp 8 +
STACK CFI 6b40 .cfa: $rsp 16 +
STACK CFI 6b4f .cfa: $rsp 8 +
STACK CFI INIT 6b50 53f .cfa: $rsp 8 + .ra: .cfa -8 + ^
STACK CFI 6b52 $r15: .cfa -16 + ^ .cfa: $rsp 16 +
STACK CFI 6b57 $r14: .cfa -24 + ^ .cfa: $rsp 24 +
STACK CFI 6b59 $r13: .cfa -32 + ^ .cfa: $rsp 32 +
STACK CFI 6b5b $r12: .cfa -40 + ^ .cfa: $rsp 40 +
STACK CFI 6b5f $rbp: .cfa -48 + ^ .cfa: $rsp 48 +
STACK CFI 6b60 $rbx: .cfa -56 + ^ .cfa: $rsp 56 +
STACK CFI 6b67 .cfa: $rsp 736 +
STACK CFI 705d .cfa: $rsp 56 +
STACK CFI 705e .cfa: $rsp 48 +
STACK CFI 705f .cfa: $rsp 40 +
STACK CFI 7061 .cfa: $rsp 32 +
STACK CFI 7063 .cfa: $rsp 24 +
STACK CFI 7065 .cfa: $rsp 16 +
STACK CFI 7067 .cfa: $rsp 8 +
STACK CFI 7070 .cfa: $rsp 736 +
STACK CFI INIT 7090 fdb .cfa: $rsp 8 + .ra: .cfa -8 + ^
STACK CFI 7096 $r15: .cfa -16 + ^ .cfa: $rsp 16 +
STACK CFI 7098 $r14: .cfa -24 + ^ .cfa: $rsp 24 +
STACK CFI 709d $r13: .cfa -32 + ^ .cfa: $rsp 32 +
STACK CFI 70a2 $r12: .cfa -40 + ^ .cfa: $rsp 40 +
STACK CFI 70a6 $rbp: .cfa -48 + ^ .cfa: $rsp 48 +
STACK CFI 70aa $rbx: .cfa -56 + ^ .cfa: $rsp 56 +
STACK CFI 70b6 .cfa: $rsp 1936 +
STACK CFI 714a .cfa: $rsp 56 +
STACK CFI 714b .cfa: $rsp 48 +
STACK CFI 714c .cfa: $rsp 40 +
STACK CFI 714e .cfa: $rsp 32 +
STACK CFI 7150 .cfa: $rsp 24 +
STACK CFI 7152 .cfa: $rsp 16 +
STACK CFI 7154 .cfa: $rsp 8 +
STACK CFI 7158 .cfa: $rsp 1936 +
STACK CFI INIT 3a40 30 $r12: .cfa -40 + ^ $r13: .cfa -32 + ^ $r14: .cfa -24 + ^ $r15: .cfa -16 + ^ $rbp: .cfa -48 + ^ $rbx: .cfa -56 + ^ .cfa: $rsp 1936 + .ra: .cfa -8 + ^
STACK CFI INIT 8070 a .cfa: $rsp 8 + .ra: .cfa -8 + ^
STACK CFI INIT 8080 966 .cfa: $rsp 8 + .ra: .cfa -8 + ^
STACK CFI 8086 $r15: .cfa -16 + ^ .cfa: $rsp 16 +
STACK CFI 8092 $r14: .cfa -24 + ^ .cfa: $rsp 24 +
STACK CFI 8094 $r13: .cfa -32 + ^ .cfa: $rsp 32 +
STACK CFI 8096 $r12: .cfa -40 + ^ .cfa: $rsp 40 +
STACK CFI 8097 $rbp: .cfa -48 + ^ .cfa: $rsp 48 +
STACK CFI 8098 $rbx: .cfa -56 + ^ .cfa: $rsp 56 +
STACK CFI 809f .cfa: $rsp 464 +
STACK CFI 8301 .cfa: $rsp 56 +
STACK CFI 8302 .cfa: $rsp 48 +
STACK CFI 8303 .cfa: $rsp 40 +
STACK CFI 8305 .cfa: $rsp 32 +
STACK CFI 8307 .cfa: $rsp 24 +
STACK CFI 8309 .cfa: $rsp 16 +
STACK CFI 830b .cfa: $rsp 8 +
STACK CFI 8310 .cfa: $rsp 464 +
STACK CFI INIT 3a70 16 $r12: .cfa -40 + ^ $r13: .cfa -32 + ^ $r14: .cfa -24 + ^ $r15: .cfa -16 + ^ $rbp: .cfa -48 + ^ $rbx: .cfa -56 + ^ .cfa: $rsp 464 + .ra: .cfa -8 + ^
STACK CFI INIT 89f0 8b .cfa: $rsp 8 + .ra: .cfa -8 + ^
STACK CFI 89f6 $r13: .cfa -16 + ^ .cfa: $rsp 16 +
STACK CFI 89fb $r12: .cfa -24 + ^ .cfa: $rsp 24 +
STACK CFI 89fc $rbp: .cfa -32 + ^ .cfa: $rsp 32 +
STACK CFI 89fd $rbx: .cfa -40 + ^ .cfa: $rsp 40 +
STACK CFI 8a01 .cfa: $rsp 48 +
STACK CFI 8a5e .cfa: $rsp 40 +
STACK CFI 8a5f .cfa: $rsp 32 +
STACK CFI 8a60 .cfa: $rsp 24 +
STACK CFI 8a65 .cfa: $rsp 16 +
STACK CFI 8a67 .cfa: $rsp 8 +
STACK CFI 8a70 .cfa: $rsp 48 +
STACK CFI 8a74 .cfa: $rsp 40 +
STACK CFI 8a75 .cfa: $rsp 32 +
STACK CFI 8a76 .cfa: $rsp 24 +
STACK CFI 8a78 .cfa: $rsp 16 +
STACK CFI 8a7a .cfa: $rsp 8 +
STACK CFI INIT 8a80 1b .cfa: $rsp 8 + .ra: .cfa -8 + ^
STACK CFI 8a85 $rbp: .cfa -16 + ^ .cfa: $rsp 16 +
STACK CFI 8a96 .cfa: $rsp 8 +
STACK CFI INIT 8aa0 18 .cfa: $rsp 8 + .ra: .cfa -8 + ^
STACK CFI INIT 8ac0 244 .cfa: $rsp 8 + .ra: .cfa -8 + ^
STACK CFI INIT 8d10 61 .cfa: $rsp 8 + .ra: .cfa -8 + ^
STACK CFI 8d15 $rbp: .cfa -16 + ^ .cfa: $rsp 16 +
STACK CFI 8d1e $rbx: .cfa -24 + ^ .cfa: $rsp 24 +
STACK CFI 8d25 .cfa: $rsp 32 +
STACK CFI 8d43 .cfa: $rsp 24 +
STACK CFI 8d44 .cfa: $rsp 16 +
STACK CFI 8d45 .cfa: $rsp 8 +
STACK CFI 8d50 .cfa: $rsp 32 +
STACK CFI 8d6e .cfa: $rsp 24 +
STACK CFI 8d6f .cfa: $rsp 16 +
STACK CFI 8d70 .cfa: $rsp 8 +
STACK CFI INIT 8d80 ef .cfa: $rsp 8 + .ra: .cfa -8 + ^
STACK CFI 8d82 $r15: .cfa -16 + ^ .cfa: $rsp 16 +
STACK CFI 8d84 $r14: .cfa -24 + ^ .cfa: $rsp 24 +
STACK CFI 8d86 $r13: .cfa -32 + ^ .cfa: $rsp 32 +
STACK CFI 8d88 $r12: .cfa -40 + ^ .cfa: $rsp 40 +
STACK CFI 8d89 $rbp: .cfa -48 + ^ .cfa: $rsp 48 +
STACK CFI 8d90 .cfa: $rsp 4144 +
STACK CFI 8d99 .cfa: $rsp 4192 +
STACK CFI 8ded .cfa: $rsp 48 +
STACK CFI 8dee .cfa: $rsp 40 +
STACK CFI 8df0 .cfa: $rsp 32 +
STACK CFI 8df2 .cfa: $rsp 24 +
STACK CFI 8df4 .cfa: $rsp 16 +
STACK CFI 8df6 .cfa: $rsp 8 +
STACK CFI 8e00 .cfa: $rsp 4192 +
STACK CFI INIT 3a86 10 $r12: .cfa -40 + ^ $r13: .cfa -32 + ^ $r14: .cfa -24 + ^ $r15: .cfa -16 + ^ $rbp: .cfa -48 + ^ .cfa: $rsp 4192 + .ra: .cfa -8 + ^
STACK CFI INIT 8e70 1a3 .cfa: $rsp 8 + .ra: .cfa -8 + ^
STACK CFI 8e72 $r14: .cfa -16 + ^ .cfa: $rsp 16 +
STACK CFI 8e74 $r13: .cfa -24 + ^ .cfa: $rsp 24 +
STACK CFI 8e76 $r12: .cfa -32 + ^ .cfa: $rsp 32 +
STACK CFI 8e77 $rbp: .cfa -40 + ^ .cfa: $rsp 40 +
STACK CFI 8e78 $rbx: .cfa -48 + ^ .cfa: $rsp 48 +
STACK CFI 8e7f .cfa: $rsp 4144 +
STACK CFI 8e8b .cfa: $rsp 5008 +
STACK CFI 8ee4 .cfa: $rsp 48 +
STACK CFI 8ee8 .cfa: $rsp 40 +
STACK CFI 8ee9 .cfa: $rsp 32 +
STACK CFI 8eeb .cfa: $rsp 24 +
STACK CFI 8eed .cfa: $rsp 16 +
STACK CFI 8eef .cfa: $rsp 8 +
STACK CFI 8ef0 .cfa: $rsp 5008 +
STACK CFI INIT 9020 12e .cfa: $rsp 8 + .ra: .cfa -8 + ^
STACK CFI 9026 $r15: .cfa -16 + ^ .cfa: $rsp 16 +
STACK CFI 902b $r14: .cfa -24 + ^ .cfa: $rsp 24 +
STACK CFI 9030 $r13: .cfa -32 + ^ .cfa: $rsp 32 +
STACK CFI 9035 $r12: .cfa -40 + ^ .cfa: $rsp 40 +
STACK CFI 9039 $rbp: .cfa -48 + ^ .cfa: $rsp 48 +
STACK CFI 9040 $rbx: .cfa -56 + ^ .cfa: $rsp 56 +
STACK CFI 904e .cfa: $rsp 64 +
STACK CFI 90b6 .cfa: $rsp 56 +
STACK CFI 90b7 .cfa: $rsp 48 +
STACK CFI 90b8 .cfa: $rsp 40 +
STACK CFI 90ba .cfa: $rsp 32 +
STACK CFI 90bc .cfa: $rsp 24 +
STACK CFI 90be .cfa: $rsp 16 +
STACK CFI 90c0 .cfa: $rsp 8 +
STACK CFI 90c8 .cfa: $rsp 64 +
STACK CFI 9111 .cfa: $rsp 56 +
STACK CFI 9112 .cfa: $rsp 48 +
STACK CFI 9113 .cfa: $rsp 40 +
STACK CFI 9115 .cfa: $rsp 32 +
STACK CFI 9117 .cfa: $rsp 24 +
STACK CFI 9119 .cfa: $rsp 16 +
STACK CFI 911b .cfa: $rsp 8 +
STACK CFI 9120 .cfa: $rsp 64 +
STACK CFI 9136 .cfa: $rsp 56 +
STACK CFI 913d .cfa: $rsp 48 +
STACK CFI 9141 .cfa: $rsp 40 +
STACK CFI 9143 .cfa: $rsp 32 +
STACK CFI 9145 .cfa: $rsp 24 +
STACK CFI 9147 .cfa: $rsp 16 +
STACK CFI 9149 .cfa: $rsp 8 +
STACK CFI INIT 9150 13d .cfa: $rsp 8 + .ra: .cfa -8 + ^
STACK CFI 9156 $r12: .cfa -16 + ^ .cfa: $rsp 16 +
STACK CFI 915e $rbp: .cfa -24 + ^ .cfa: $rsp 24 +
STACK CFI 9162 $rbx: .cfa -32 + ^ .cfa: $rsp 32 +
STACK CFI 9169 .cfa: $rsp 336 +
STACK CFI 9248 .cfa: $rsp 32 +
STACK CFI 924c .cfa: $rsp 24 +
STACK CFI 924d .cfa: $rsp 16 +
STACK CFI 924f .cfa: $rsp 8 +
STACK CFI 9250 .cfa: $rsp 336 +
STACK CFI INIT 9290 34 .cfa: $rsp 8 + .ra: .cfa -8 + ^
STACK CFI 9295 $rbp: .cfa -16 + ^ .cfa: $rsp 16 +
STACK CFI 92b7 .cfa: $rsp 8 +
STACK CFI 92c0 .cfa: $rsp 16 +
STACK CFI 92c3 .cfa: $rsp 8 +
STACK CFI INIT 92d0 48 .cfa: $rsp 8 + .ra: .cfa -8 + ^
STACK CFI INIT 9320 48 .cfa: $rsp 8 + .ra: .cfa -8 + ^
STACK CFI INIT 9370 73 .cfa: $rsp 8 + .ra: .cfa -8 + ^
STACK CFI 9376 $r14: .cfa -16 + ^ .cfa: $rsp 16 +
STACK CFI 937b $r13: .cfa -24 + ^ .cfa: $rsp 24 +
STACK CFI 9380 $r12: .cfa -32 + ^ .cfa: $rsp 32 +
STACK CFI 9384 $rbp: .cfa -40 + ^ .cfa: $rsp 40 +
STACK CFI 9388 $rbx: .cfa -48 + ^ .cfa: $rsp 48 +
STACK CFI 93cd .cfa: $rsp 40 +
STACK CFI 93ce .cfa: $rsp 32 +
STACK CFI 93d0 .cfa: $rsp 24 +
STACK CFI 93d2 .cfa: $rsp 16 +
STACK CFI 93d4 .cfa: $rsp 8 +
STACK CFI 93d8 .cfa: $rsp 48 +
STACK CFI 93d9 .cfa: $rsp 40 +
STACK CFI 93dc .cfa: $rsp 32 +
STACK CFI 93de .cfa: $rsp 24 +
STACK CFI 93e0 .cfa: $rsp 16 +
STACK CFI 93e2 .cfa: $rsp 8 +
STACK CFI INIT 93f0 40 .cfa: $rsp 8 + .ra: .cfa -8 + ^
STACK CFI INIT 9430 22f .cfa: $rsp 8 + .ra: .cfa -8 + ^
STACK CFI 9436 $r15: .cfa -16 + ^ .cfa: $rsp 16 +
STACK CFI 9438 $r14: .cfa -24 + ^ .cfa: $rsp 24 +
STACK CFI 943a $r13: .cfa -32 + ^ .cfa: $rsp 32 +
STACK CFI 943f $r12: .cfa -40 + ^ .cfa: $rsp 40 +
STACK CFI 9440 $rbp: .cfa -48 + ^ .cfa: $rsp 48 +
STACK CFI 9441 $rbx: .cfa -56 + ^ .cfa: $rsp 56 +
STACK CFI 944b .cfa: $rsp 384 +
STACK CFI 9619 .cfa: $rsp 56 +
STACK CFI 961a .cfa: $rsp 48 +
STACK CFI 961b .cfa: $rsp 40 +
STACK CFI 961d .cfa: $rsp 32 +
STACK CFI 961f .cfa: $rsp 24 +
STACK CFI 9621 .cfa: $rsp 16 +
STACK CFI 9623 .cfa: $rsp 8 +
STACK CFI 9628 .cfa: $rsp 384 +
STACK CFI INIT 9660 5c .cfa: $rsp 8 + .ra: .cfa -8 + ^
STACK CFI 9666 $r12: .cfa -16 + ^ .cfa: $rsp 16 +
STACK CFI 966d $rbp: .cfa -24 + ^ .cfa: $rsp 24 +
STACK CFI 9674 .cfa: $rsp 32 +
STACK CFI 9683 .cfa: $rsp 24 +
STACK CFI 9686 .cfa: $rsp 16 +
STACK CFI 9688 .cfa: $rsp 8 +
STACK CFI 9690 .cfa: $rsp 32 +
STACK CFI 96ae .cfa: $rsp 24 +
STACK CFI 96b5 .cfa: $rsp 16 +
STACK CFI 96b7 .cfa: $rsp 8 +
STACK CFI INIT 96c0 358 .cfa: $rsp 8 + .ra: .cfa -8 + ^
STACK CFI 96c6 $r15: .cfa -16 + ^ .cfa: $rsp 16 +
STACK CFI 96c8 $r14: .cfa -24 + ^ .cfa: $rsp 24 +
STACK CFI 96ca $r13: .cfa -32 + ^ .cfa: $rsp 32 +
STACK CFI 96cc $r12: .cfa -40 + ^ .cfa: $rsp 40 +
STACK CFI 96cd $rbp: .cfa -48 + ^ .cfa: $rsp 48 +
STACK CFI 96ce $rbx: .cfa -56 + ^ .cfa: $rsp 56 +
STACK CFI 96d5 .cfa: $rsp 4152 +
STACK CFI 96de .cfa: $rsp 4208 +
STACK CFI 975e .cfa: $rsp 56 +
STACK CFI 975f .cfa: $rsp 48 +
STACK CFI 9760 .cfa: $rsp 40 +
STACK CFI 9762 .cfa: $rsp 32 +
STACK CFI 9764 .cfa: $rsp 24 +
STACK CFI 9766 .cfa: $rsp 16 +
STACK CFI 9768 .cfa: $rsp 8 +
STACK CFI 9770 .cfa: $rsp 4208 +
STACK CFI 97d2 .cfa: $rsp 56 +
STACK CFI 97d9 .cfa: $rsp 48 +
STACK CFI 97da .cfa: $rsp 40 +
STACK CFI 97dc .cfa: $rsp 32 +
STACK CFI 97de .cfa: $rsp 24 +
STACK CFI 97e0 .cfa: $rsp 16 +
STACK CFI 97e2 .cfa: $rsp 8 +
STACK CFI 97f0 .cfa: $rsp 4208 +
STACK CFI INIT 3a96 10 $r12: .cfa -40 + ^ $r13: .cfa -32 + ^ $r14: .cfa -24 + ^ $r15: .cfa -16 + ^ $rbp: .cfa -48 + ^ $rbx: .cfa -56 + ^ .cfa: $rsp 4208 + .ra: .cfa -8 + ^
STACK CFI INIT a000 2d3 .cfa: $rsp 8 + .ra: .cfa -8 + ^
STACK CFI a015 $r15: .cfa -16 + ^ .cfa: $rsp 16 +
STACK CFI a017 $r14: .cfa -24 + ^ .cfa: $rsp 24 +
STACK CFI a019 $r13: .cfa -32 + ^ .cfa: $rsp 32 +
STACK CFI a01b $r12: .cfa -40 + ^ .cfa: $rsp 40 +
STACK CFI a01c $rbp: .cfa -48 + ^ .cfa: $rsp 48 +
STACK CFI a020 $rbx: .cfa -56 + ^ .cfa: $rsp 56 +
STACK CFI a027 .cfa: $rsp 96 +
STACK CFI a06e .cfa: $rsp 56 +
STACK CFI a06f .cfa: $rsp 48 +
STACK CFI a070 .cfa: $rsp 40 +
STACK CFI a072 .cfa: $rsp 32 +
STACK CFI a074 .cfa: $rsp 24 +
STACK CFI a076 .cfa: $rsp 16 +
STACK CFI a078 .cfa: $rsp 8 +
STACK CFI a080 $r12: $r12 $r13: $r13 $r14: $r14 $r15: $r15 $rbp: $rbp $rbx: $rbx
STACK CFI a088 $r12: .cfa -40 + ^ $r13: .cfa -32 + ^ $r14: .cfa -24 + ^ $r15: .cfa -16 + ^ $rbp: .cfa -48 + ^ $rbx: .cfa -56 + ^ .cfa: $rsp 96 +
STACK CFI a11b .cfa: $rsp 56 +
STACK CFI a11c .cfa: $rsp 48 +
STACK CFI a11d .cfa: $rsp 40 +
STACK CFI a11f .cfa: $rsp 32 +
STACK CFI a121 .cfa: $rsp 24 +
STACK CFI a123 .cfa: $rsp 16 +
STACK CFI a125 .cfa: $rsp 8 +
STACK CFI a126 .cfa: $rsp 96 +
STACK CFI INIT 9a20 5dd .cfa: $rsp 8 + .ra: .cfa -8 + ^
STACK CFI 9a26 $r15: .cfa -16 + ^ .cfa: $rsp 16 +
STACK CFI 9a28 $r14: .cfa -24 + ^ .cfa: $rsp 24 +
STACK CFI 9a31 $r13: .cfa -32 + ^ .cfa: $rsp 32 +
STACK CFI 9a39 $r12: .cfa -40 + ^ .cfa: $rsp 40 +
STACK CFI 9a3a $rbp: .cfa -48 + ^ .cfa: $rsp 48 +
STACK CFI 9a3f $rbx: .cfa -56 + ^ .cfa: $rsp 56 +
STACK CFI 9a46 .cfa: $rsp 64 +
STACK CFI 9ea2 .cfa: $rsp 56 +
STACK CFI 9ea3 .cfa: $rsp 48 +
STACK CFI 9ea4 .cfa: $rsp 40 +
STACK CFI 9ea6 .cfa: $rsp 32 +
STACK CFI 9ea8 .cfa: $rsp 24 +
STACK CFI 9eaa .cfa: $rsp 16 +
STACK CFI 9eac .cfa: $rsp 8 +
STACK CFI 9eb0 .cfa: $rsp 64 +
STACK CFI 9ecc .cfa: $rsp 56 +
STACK CFI 9ecd .cfa: $rsp 48 +
STACK CFI 9ece .cfa: $rsp 40 +
STACK CFI 9ed0 .cfa: $rsp 32 +
STACK CFI 9ed2 .cfa: $rsp 24 +
STACK CFI 9ed4 .cfa: $rsp 16 +
STACK CFI 9ed6 .cfa: $rsp 8 +
STACK CFI 9ee0 .cfa: $rsp 64 +
STACK CFI INIT 3aa6 56 $r12: .cfa -40 + ^ $r13: .cfa -32 + ^ $r14: .cfa -24 + ^ $r15: .cfa -16 + ^ $rbp: .cfa -48 + ^ $rbx: .cfa -56 + ^ .cfa: $rsp 64 + .ra: .cfa -8 + ^
STACK CFI INIT a2e0 7 .cfa: $rsp 8 + .ra: .cfa -8 + ^
STACK CFI INIT a2f0 189 .cfa: $rsp 8 + .ra: .cfa -8 + ^
STACK CFI a2f6 $r15: .cfa -16 + ^ .cfa: $rsp 16 +
STACK CFI a2f8 $r14: .cfa -24 + ^ .cfa: $rsp 24 +
STACK CFI a2fa $r13: .cfa -32 + ^ .cfa: $rsp 32 +
STACK CFI a2ff $r12: .cfa -40 + ^ .cfa: $rsp 40 +
STACK CFI a300 $rbp: .cfa -48 + ^ .cfa: $rsp 48 +
STACK CFI a301 $rbx: .cfa -56 + ^ .cfa: $rsp 56 +
STACK CFI a305 .cfa: $rsp 96 +
STACK CFI a3b1 .cfa: $rsp 56 +
STACK CFI a3b7 .cfa: $rsp 48 +
STACK CFI a3b8 .cfa: $rsp 40 +
STACK CFI a3ba .cfa: $rsp 32 +
STACK CFI a3bc .cfa: $rsp 24 +
STACK CFI a3be .cfa: $rsp 16 +
STACK CFI a3c0 .cfa: $rsp 8 +
STACK CFI a3c8 .cfa: $rsp 96 +
STACK CFI INIT b590 17 .cfa: $rsp 8 + .ra: .cfa -8 + ^
STACK CFI INIT b5b0 29 .cfa: $rsp 8 + .ra: .cfa -8 + ^
STACK CFI b5bc $rbp: .cfa -16 + ^ .cfa: $rsp 16 +
STACK CFI b5d4 .cfa: $rsp 8 +
STACK CFI INIT a480 a8 .cfa: $rsp 8 + .ra: .cfa -8 + ^
STACK CFI a482 $r15: .cfa -16 + ^ .cfa: $rsp 16 +
STACK CFI a484 $r14: .cfa -24 + ^ .cfa: $rsp 24 +
STACK CFI a489 $r13: .cfa -32 + ^ .cfa: $rsp 32 +
STACK CFI a491 $r12: .cfa -40 + ^ .cfa: $rsp 40 +
STACK CFI a492 $rbp: .cfa -48 + ^ .cfa: $rsp 48 +
STACK CFI a496 $rbx: .cfa -56 + ^ .cfa: $rsp 56 +
STACK CFI a49a .cfa: $rsp 64 +
STACK CFI a4a8 .cfa: $rsp 56 +
STACK CFI a4ab .cfa: $rsp 48 +
STACK CFI a4ac .cfa: $rsp 40 +
STACK CFI a4ae .cfa: $rsp 32 +
STACK CFI a4b0 .cfa: $rsp 24 +
STACK CFI a4b2 .cfa: $rsp 16 +
STACK CFI a4b4 .cfa: $rsp 8 +
STACK CFI a4b8 .cfa: $rsp 64 +
STACK CFI a518 .cfa: $rsp 56 +
STACK CFI a51e .cfa: $rsp 48 +
STACK CFI a51f .cfa: $rsp 40 +
STACK CFI a521 .cfa: $rsp 32 +
STACK CFI a523 .cfa: $rsp 24 +
STACK CFI a525 .cfa: $rsp 16 +
STACK CFI a527 .cfa: $rsp 8 +
STACK CFI INIT a530 2b .cfa: $rsp 8 + .ra: .cfa -8 + ^
STACK CFI INIT a560 bd .cfa: $rsp 8 + .ra: .cfa -8 + ^
STACK CFI a577 $r13: .cfa -16 + ^ .cfa: $rsp 16 +
STACK CFI a579 $r12: .cfa -24 + ^ .cfa: $rsp 24 +
STACK CFI a57d $rbp: .cfa -32 + ^ .cfa: $rsp 32 +
STACK CFI a57e $rbx: .cfa -40 + ^ .cfa: $rsp 40 +
STACK CFI a582 .cfa: $rsp 48 +
STACK CFI a5f6 .cfa: $rsp 40 +
STACK CFI a5fa .cfa: $rsp 32 +
STACK CFI a5fb .cfa: $rsp 24 +
STACK CFI a5fd .cfa: $rsp 16 +
STACK CFI a5ff .cfa: $rsp 8 +
STACK CFI a600 $r12: $r12 $r13: $r13 $rbp: $rbp $rbx: $rbx
STACK CFI a608 $r12: .cfa -24 + ^ $r13: .cfa -16 + ^ $rbp: .cfa -32 + ^ $rbx: .cfa -40 + ^ .cfa: $rsp 48 +
STACK CFI INIT a620 63f .cfa: $rsp 8 + .ra: .cfa -8 + ^
STACK CFI a626 $r15: .cfa -16 + ^ .cfa: $rsp 16 +
STACK CFI a632 $r14: .cfa -24 + ^ .cfa: $rsp 24 +
STACK CFI a634 $r13: .cfa -32 + ^ .cfa: $rsp 32 +
STACK CFI a636 $r12: .cfa -40 + ^ .cfa: $rsp 40 +
STACK CFI a637 $rbp: .cfa -48 + ^ .cfa: $rsp 48 +
STACK CFI a638 $rbx: .cfa -56 + ^ .cfa: $rsp 56 +
STACK CFI a63f .cfa: $rsp 432 +
STACK CFI a6d2 .cfa: $rsp 56 +
STACK CFI a6d6 .cfa: $rsp 48 +
STACK CFI a6d7 .cfa: $rsp 40 +
STACK CFI a6d9 .cfa: $rsp 32 +
STACK CFI a6db .cfa: $rsp 24 +
STACK CFI a6dd .cfa: $rsp 16 +
STACK CFI a6df .cfa: $rsp 8 +
STACK CFI a6e0 .cfa: $rsp 432 +
STACK CFI INIT 3afc 19 $r12: .cfa -40 + ^ $r13: .cfa -32 + ^ $r14: .cfa -24 + ^ $r15: .cfa -16 + ^ $rbp: .cfa -48 + ^ $rbx: .cfa -56 + ^ .cfa: $rsp 432 + .ra: .cfa -8 + ^
STACK CFI INIT ac60 2b .cfa: $rsp 8 + .ra: .cfa -8 + ^
STACK CFI ac65 $rbx: .cfa -16 + ^ .cfa: $rsp 16 +
STACK CFI ac8a .cfa: $rsp 8 +
STACK CFI INIT ac90 e5 .cfa: $rsp 8 + .ra: .cfa -8 + ^
STACK CFI ac96 $r15: .cfa -16 + ^ .cfa: $rsp 16 +
STACK CFI ac98 $r14: .cfa -24 + ^ .cfa: $rsp 24 +
STACK CFI aca0 $r13: .cfa -32 + ^ .cfa: $rsp 32 +
STACK CFI aca2 $r12: .cfa -40 + ^ .cfa: $rsp 40 +
STACK CFI aca6 $rbp: .cfa -48 + ^ .cfa: $rsp 48 +
STACK CFI acaf $rbx: .cfa -56 + ^ .cfa: $rsp 56 +
STACK CFI acb6 .cfa: $rsp 112 +
STACK CFI ad39 .cfa: $rsp 56 +
STACK CFI ad3a .cfa: $rsp 48 +
STACK CFI ad3b .cfa: $rsp 40 +
STACK CFI ad3d .cfa: $rsp 32 +
STACK CFI ad3f .cfa: $rsp 24 +
STACK CFI ad41 .cfa: $rsp 16 +
STACK CFI ad43 .cfa: $rsp 8 +
STACK CFI ad48 .cfa: $rsp 112 +
STACK CFI INIT ad80 dd .cfa: $rsp 8 + .ra: .cfa -8 + ^
STACK CFI ad86 $r14: .cfa -16 + ^ .cfa: $rsp 16 +
STACK CFI ad88 $r13: .cfa -24 + ^ .cfa: $rsp 24 +
STACK CFI ad8d $r12: .cfa -32 + ^ .cfa: $rsp 32 +
STACK CFI ad91 $rbp: .cfa -40 + ^ .cfa: $rsp 40 +
STACK CFI ad9a $rbx: .cfa -48 + ^ .cfa: $rsp 48 +
STACK CFI ada3 .cfa: $rsp 80 +
STACK CFI ae26 .cfa: $rsp 48 +
STACK CFI ae27 .cfa: $rsp 40 +
STACK CFI ae28 .cfa: $rsp 32 +
STACK CFI ae2a .cfa: $rsp 24 +
STACK CFI ae2c .cfa: $rsp 16 +
STACK CFI ae2e .cfa: $rsp 8 +
STACK CFI ae30 .cfa: $rsp 80 +
STACK CFI INIT ae60 4b4 .cfa: $rsp 8 + .ra: .cfa -8 + ^
STACK CFI ae66 $r15: .cfa -16 + ^ .cfa: $rsp 16 +
STACK CFI ae68 $r14: .cfa -24 + ^ .cfa: $rsp 24 +
STACK CFI ae6a $r13: .cfa -32 + ^ .cfa: $rsp 32 +
STACK CFI ae6c $r12: .cfa -40 + ^ .cfa: $rsp 40 +
STACK CFI ae6d $rbp: .cfa -48 + ^ .cfa: $rsp 48 +
STACK CFI ae6e $rbx: .cfa -56 + ^ .cfa: $rsp 56 +
STACK CFI ae78 .cfa: $rsp 368 +
STACK CFI af49 .cfa: $rsp 56 +
STACK CFI af4a .cfa: $rsp 48 +
STACK CFI af4b .cfa: $rsp 40 +
STACK CFI af4d .cfa: $rsp 32 +
STACK CFI af4f .cfa: $rsp 24 +
STACK CFI af51 .cfa: $rsp 16 +
STACK CFI af53 .cfa: $rsp 8 +
STACK CFI af54 .cfa: $rsp 368 +
STACK CFI INIT 3b16 18 $r12: .cfa -40 + ^ $r13: .cfa -32 + ^ $r14: .cfa -24 + ^ $r15: .cfa -16 + ^ $rbp: .cfa -48 + ^ $rbx: .cfa -56 + ^ .cfa: $rsp 368 + .ra: .cfa -8 + ^
STACK CFI INIT b5e0 2d3 .cfa: $rsp 8 + .ra: .cfa -8 + ^
STACK CFI b5f5 $r15: .cfa -16 + ^ .cfa: $rsp 16 +
STACK CFI b5f7 $r14: .cfa -24 + ^ .cfa: $rsp 24 +
STACK CFI b5f9 $r13: .cfa -32 + ^ .cfa: $rsp 32 +
STACK CFI b5fb $r12: .cfa -40 + ^ .cfa: $rsp 40 +
STACK CFI b5fc $rbp: .cfa -48 + ^ .cfa: $rsp 48 +
STACK CFI b600 $rbx: .cfa -56 + ^ .cfa: $rsp 56 +
STACK CFI b607 .cfa: $rsp 96 +
STACK CFI b64e .cfa: $rsp 56 +
STACK CFI b64f .cfa: $rsp 48 +
STACK CFI b650 .cfa: $rsp 40 +
STACK CFI b652 .cfa: $rsp 32 +
STACK CFI b654 .cfa: $rsp 24 +
STACK CFI b656 .cfa: $rsp 16 +
STACK CFI b658 .cfa: $rsp 8 +
STACK CFI b660 $r12: $r12 $r13: $r13 $r14: $r14 $r15: $r15 $rbp: $rbp $rbx: $rbx
STACK CFI b668 $r12: .cfa -40 + ^ $r13: .cfa -32 + ^ $r14: .cfa -24 + ^ $r15: .cfa -16 + ^ $rbp: .cfa -48 + ^ $rbx: .cfa -56 + ^ .cfa: $rsp 96 +
STACK CFI b6fa .cfa: $rsp 56 +
STACK CFI b6fb .cfa: $rsp 48 +
STACK CFI b6fc .cfa: $rsp 40 +
STACK CFI b6fe .cfa: $rsp 32 +
STACK CFI b700 .cfa: $rsp 24 +
STACK CFI b702 .cfa: $rsp 16 +
STACK CFI b704 .cfa: $rsp 8 +
STACK CFI b705 .cfa: $rsp 96 +
STACK CFI INIT b320 26d .cfa: $rsp 8 + .ra: .cfa -8 + ^
STACK CFI b326 $r15: .cfa -16 + ^ .cfa: $rsp 16 +
STACK CFI b328 $r14: .cfa -24 + ^ .cfa: $rsp 24 +
STACK CFI b32a $r13: .cfa -32 + ^ .cfa: $rsp 32 +
STACK CFI b32c $r12: .cfa -40 + ^ .cfa: $rsp 40 +
STACK CFI b32d $rbp: .cfa -48 + ^ .cfa: $rsp 48 +
STACK CFI b32e $rbx: .cfa -56 + ^ .cfa: $rsp 56 +
STACK CFI b335 .cfa: $rsp 288 +
STACK CFI b4b1 .cfa: $rsp 56 +
STACK CFI b4b2 .cfa: $rsp 48 +
STACK CFI b4b3 .cfa: $rsp 40 +
STACK CFI b4b5 .cfa: $rsp 32 +
STACK CFI b4b7 .cfa: $rsp 24 +
STACK CFI b4b9 .cfa: $rsp 16 +
STACK CFI b4bb .cfa: $rsp 8 +
STACK CFI b4c0 .cfa: $rsp 288 +
STACK CFI INIT 3b2e 2c .cfa: $rsp 8 + .ra: .cfa -8 + ^
STACK CFI 3b2f $rbp: .cfa -16 + ^ .cfa: $rsp 16 +
STACK CFI 3b34 $rbx: .cfa -24 + ^ .cfa: $rsp 24 +
STACK CFI 3b38 .cfa: $rsp 32 +
STACK CFI 3b50 .cfa: $rsp 24 +
STACK CFI 3b54 .cfa: $rsp 16 +
STACK CFI 3b55 .cfa: $rsp 8 +
STACK CFI INIT b8c0 25 .cfa: $rsp 8 + .ra: .cfa -8 + ^
STACK CFI b8c1 .cfa: $rsp 16 +
STACK CFI b8c2 .cfa: $rsp 8 +
STACK CFI b8e0 .cfa: $rsp 16 +
STACK CFI INIT b8f0 25 .cfa: $rsp 8 + .ra: .cfa -8 + ^
STACK CFI b8f1 .cfa: $rsp 16 +
STACK CFI b8f2 .cfa: $rsp 8 +
STACK CFI b910 .cfa: $rsp 16 +
STACK CFI INIT b920 25 .cfa: $rsp 8 + .ra: .cfa -8 + ^
STACK CFI b921 .cfa: $rsp 16 +
STACK CFI b922 .cfa: $rsp 8 +
STACK CFI b940 .cfa: $rsp 16 +
STACK CFI INIT 3b5a 14 .cfa: $rsp 8 + .ra: .cfa -8 + ^
STACK CFI INIT b950 432 .cfa: $rsp 8 + .ra: .cfa -8 + ^
STACK CFI b952 $r15: .cfa -16 + ^ .cfa: $rsp 16 +
STACK CFI b957 $r14: .cfa -24 + ^ .cfa: $rsp 24 +
STACK CFI b959 $r13: .cfa -32 + ^ .cfa: $rsp 32 +
STACK CFI b95b $r12: .cfa -40 + ^ .cfa: $rsp 40 +
STACK CFI b95c $rbp: .cfa -48 + ^ .cfa: $rsp 48 +
STACK CFI b95d $rbx: .cfa -56 + ^ .cfa: $rsp 56 +
STACK CFI b961 .cfa: $rsp 144 +
STACK CFI b9b8 .cfa: $rsp 56 +
STACK CFI b9bc .cfa: $rsp 48 +
STACK CFI b9bd .cfa: $rsp 40 +
STACK CFI b9bf .cfa: $rsp 32 +
STACK CFI b9c1 .cfa: $rsp 24 +
STACK CFI b9c3 .cfa: $rsp 16 +
STACK CFI b9c5 .cfa: $rsp 8 +
STACK CFI b9d0 .cfa: $rsp 144 +
STACK CFI INIT 3b6e 40 $r12: .cfa -40 + ^ $r13: .cfa -32 + ^ $r14: .cfa -24 + ^ $r15: .cfa -16 + ^ $rbp: .cfa -48 + ^ $rbx: .cfa -56 + ^ .cfa: $rsp 144 + .ra: .cfa -8 + ^
STACK CFI INIT bd90 3d8 .cfa: $rsp 8 + .ra: .cfa -8 + ^
STACK CFI bd92 $r15: .cfa -16 + ^ .cfa: $rsp 16 +
STACK CFI bd99 $r14: .cfa -24 + ^ .cfa: $rsp 24 +
STACK CFI bd9b $r13: .cfa -32 + ^ .cfa: $rsp 32 +
STACK CFI bd9d $r12: .cfa -40 + ^ .cfa: $rsp 40 +
STACK CFI bda4 $rbp: .cfa -48 + ^ .cfa: $rsp 48 +
STACK CFI bdaa $rbx: .cfa -56 + ^ .cfa: $rsp 56 +
STACK CFI bdb4 .cfa: $rsp 784 +
STACK CFI bfca .cfa: $rsp 56 +
STACK CFI bfcb .cfa: $rsp 48 +
STACK CFI bfcc .cfa: $rsp 40 +
STACK CFI bfce .cfa: $rsp 32 +
STACK CFI bfd0 .cfa: $rsp 24 +
STACK CFI bfd2 .cfa: $rsp 16 +
STACK CFI bfd4 .cfa: $rsp 8 +
STACK CFI bfd8 .cfa: $rsp 784 +
STACK CFI INIT 3bae 2d $r12: .cfa -40 + ^ $r13: .cfa -32 + ^ $r14: .cfa -24 + ^ $r15: .cfa -16 + ^ $rbp: .cfa -48 + ^ $rbx: .cfa -56 + ^ .cfa: $rsp 784 + .ra: .cfa -8 + ^
STACK CFI INIT c170 2c4 .cfa: $rsp 8 + .ra: .cfa -8 + ^
STACK CFI c172 $r15: .cfa -16 + ^ .cfa: $rsp 16 +
STACK CFI c174 $r14: .cfa -24 + ^ .cfa: $rsp 24 +
STACK CFI c176 $r13: .cfa -32 + ^ .cfa: $rsp 32 +
STACK CFI c178 $r12: .cfa -40 + ^ .cfa: $rsp 40 +
STACK CFI c179 $rbp: .cfa -48 + ^ .cfa: $rsp 48 +
STACK CFI c17a $rbx: .cfa -56 + ^ .cfa: $rsp 56 +
STACK CFI c181 .cfa: $rsp 112 +
STACK CFI c35b .cfa: $rsp 56 +
STACK CFI c35f .cfa: $rsp 48 +
STACK CFI c360 .cfa: $rsp 40 +
STACK CFI c362 .cfa: $rsp 32 +
STACK CFI c364 .cfa: $rsp 24 +
STACK CFI c366 .cfa: $rsp 16 +
STACK CFI c368 .cfa: $rsp 8 +
STACK CFI c370 .cfa: $rsp 112 +
STACK CFI c38c .cfa: $rsp 56 +
STACK CFI c38d .cfa: $rsp 48 +
STACK CFI c38e .cfa: $rsp 40 +
STACK CFI c390 .cfa: $rsp 32 +
STACK CFI c392 .cfa: $rsp 24 +
STACK CFI c394 .cfa: $rsp 16 +
STACK CFI c396 .cfa: $rsp 8 +
STACK CFI c39b .cfa: $rsp 112 +
STACK CFI INIT fd90 230 .cfa: $rsp 8 + .ra: .cfa -8 + ^
STACK CFI fd96 $r15: .cfa -16 + ^ .cfa: $rsp 16 +
STACK CFI fd98 $r14: .cfa -24 + ^ .cfa: $rsp 24 +
STACK CFI fd9d $r13: .cfa -32 + ^ .cfa: $rsp 32 +
STACK CFI fda2 $r12: .cfa -40 + ^ .cfa: $rsp 40 +
STACK CFI fda3 $rbp: .cfa -48 + ^ .cfa: $rsp 48 +
STACK CFI fda4 $rbx: .cfa -56 + ^ .cfa: $rsp 56 +
STACK CFI fdac .cfa: $rsp 80 +
STACK CFI ff14 .cfa: $rsp 56 +
STACK CFI ff1a .cfa: $rsp 48 +
STACK CFI ff1b .cfa: $rsp 40 +
STACK CFI ff1d .cfa: $rsp 32 +
STACK CFI ff1f .cfa: $rsp 24 +
STACK CFI ff21 .cfa: $rsp 16 +
STACK CFI ff23 .cfa: $rsp 8 +
STACK CFI ff28 .cfa: $rsp 80 +
STACK CFI ff94 .cfa: $rsp 56 +
STACK CFI ff97 .cfa: $rsp 48 +
STACK CFI ff98 .cfa: $rsp 40 +
STACK CFI ff9a .cfa: $rsp 32 +
STACK CFI ff9c .cfa: $rsp 24 +
STACK CFI ff9e .cfa: $rsp 16 +
STACK CFI ffa0 .cfa: $rsp 8 +
STACK CFI ffa1 .cfa: $rsp 80 +
STACK CFI INIT ffc0 2c4 .cfa: $rsp 8 + .ra: .cfa -8 + ^
STACK CFI ffc6 $r15: .cfa -16 + ^ .cfa: $rsp 16 +
STACK CFI ffc8 $r14: .cfa -24 + ^ .cfa: $rsp 24 +
STACK CFI ffca $r13: .cfa -32 + ^ .cfa: $rsp 32 +
STACK CFI ffcc $r12: .cfa -40 + ^ .cfa: $rsp 40 +
STACK CFI ffcd $rbp: .cfa -48 + ^ .cfa: $rsp 48 +
STACK CFI ffce $rbx: .cfa -56 + ^ .cfa: $rsp 56 +
STACK CFI ffd2 .cfa: $rsp 128 +
STACK CFI 100d0 .cfa: $rsp 56 +
STACK CFI 100d1 .cfa: $rsp 48 +
STACK CFI 100d2 .cfa: $rsp 40 +
STACK CFI 100d4 .cfa: $rsp 32 +
STACK CFI 100d6 .cfa: $rsp 24 +
STACK CFI 100d8 .cfa: $rsp 16 +
STACK CFI 100da .cfa: $rsp 8 +
STACK CFI 100e0 .cfa: $rsp 128 +
STACK CFI INIT c440 e0d .cfa: $rsp 8 + .ra: .cfa -8 + ^
STACK CFI c442 $r15: .cfa -16 + ^ .cfa: $rsp 16 +
STACK CFI c444 $r14: .cfa -24 + ^ .cfa: $rsp 24 +
STACK CFI c446 $r13: .cfa -32 + ^ .cfa: $rsp 32 +
STACK CFI c448 $r12: .cfa -40 + ^ .cfa: $rsp 40 +
STACK CFI c449 $rbp: .cfa -48 + ^ .cfa: $rsp 48 +
STACK CFI c44a $rbx: .cfa -56 + ^ .cfa: $rsp 56 +
STACK CFI c451 .cfa: $rsp 2384 +
STACK CFI c7e3 .cfa: $rsp 56 +
STACK CFI c7e4 .cfa: $rsp 48 +
STACK CFI c7e5 .cfa: $rsp 40 +
STACK CFI c7e7 .cfa: $rsp 32 +
STACK CFI c7e9 .cfa: $rsp 24 +
STACK CFI c7eb .cfa: $rsp 16 +
STACK CFI c7ed .cfa: $rsp 8 +
STACK CFI c7f0 .cfa: $rsp 2384 +
STACK CFI INIT 3bdc 6a $r12: .cfa -40 + ^ $r13: .cfa -32 + ^ $r14: .cfa -24 + ^ $r15: .cfa -16 + ^ $rbp: .cfa -48 + ^ $rbx: .cfa -56 + ^ .cfa: $rsp 2384 + .ra: .cfa -8 + ^
STACK CFI INIT 10290 25a .cfa: $rsp 8 + .ra: .cfa -8 + ^
STACK CFI 102a5 $r15: .cfa -16 + ^ .cfa: $rsp 16 +
STACK CFI 102a7 $r14: .cfa -24 + ^ .cfa: $rsp 24 +
STACK CFI 102a9 $r13: .cfa -32 + ^ .cfa: $rsp 32 +
STACK CFI 102ab $r12: .cfa -40 + ^ .cfa: $rsp 40 +
STACK CFI 102ac $rbp: .cfa -48 + ^ .cfa: $rsp 48 +
STACK CFI 102b0 $rbx: .cfa -56 + ^ .cfa: $rsp 56 +
STACK CFI 102ba .cfa: $rsp 80 +
STACK CFI 102ef .cfa: $rsp 56 +
STACK CFI 102f0 .cfa: $rsp 48 +
STACK CFI 102f1 .cfa: $rsp 40 +
STACK CFI 102f3 .cfa: $rsp 32 +
STACK CFI 102f5 .cfa: $rsp 24 +
STACK CFI 102f7 .cfa: $rsp 16 +
STACK CFI 102f9 .cfa: $rsp 8 +
STACK CFI 10300 $r12: $r12 $r13: $r13 $r14: $r14 $r15: $r15 $rbp: $rbp $rbx: $rbx
STACK CFI 10308 $r12: .cfa -40 + ^ $r13: .cfa -32 + ^ $r14: .cfa -24 + ^ $r15: .cfa -16 + ^ $rbp: .cfa -48 + ^ $rbx: .cfa -56 + ^ .cfa: $rsp 80 +
STACK CFI 10389 .cfa: $rsp 56 +
STACK CFI 1038a .cfa: $rsp 48 +
STACK CFI 1038b .cfa: $rsp 40 +
STACK CFI 1038d .cfa: $rsp 32 +
STACK CFI 1038f .cfa: $rsp 24 +
STACK CFI 10391 .cfa: $rsp 16 +
STACK CFI 10393 .cfa: $rsp 8 +
STACK CFI 10398 .cfa: $rsp 80 +
STACK CFI INIT d250 1ce6 .cfa: $rsp 8 + .ra: .cfa -8 + ^
STACK CFI d252 $r15: .cfa -16 + ^ .cfa: $rsp 16 +
STACK CFI d25d $r14: .cfa -24 + ^ .cfa: $rsp 24 +
STACK CFI d262 $r13: .cfa -32 + ^ .cfa: $rsp 32 +
STACK CFI d264 $r12: .cfa -40 + ^ .cfa: $rsp 40 +
STACK CFI d265 $rbp: .cfa -48 + ^ .cfa: $rsp 48 +
STACK CFI d266 $rbx: .cfa -56 + ^ .cfa: $rsp 56 +
STACK CFI d271 .cfa: $rsp 1536 +
STACK CFI d367 .cfa: $rsp 56 +
STACK CFI d36b .cfa: $rsp 48 +
STACK CFI d36c .cfa: $rsp 40 +
STACK CFI d36e .cfa: $rsp 32 +
STACK CFI d370 .cfa: $rsp 24 +
STACK CFI d372 .cfa: $rsp 16 +
STACK CFI d374 .cfa: $rsp 8 +
STACK CFI d378 .cfa: $rsp 1536 +
STACK CFI INIT 3c46 1b6 $r12: .cfa -40 + ^ $r13: .cfa -32 + ^ $r14: .cfa -24 + ^ $r15: .cfa -16 + ^ $rbp: .cfa -48 + ^ $rbx: .cfa -56 + ^ .cfa: $rsp 1536 + .ra: .cfa -8 + ^
STACK CFI INIT ef40 318 .cfa: $rsp 8 + .ra: .cfa -8 + ^
STACK CFI ef46 $r15: .cfa -16 + ^ .cfa: $rsp 16 +
STACK CFI ef4b $r14: .cfa -24 + ^ .cfa: $rsp 24 +
STACK CFI ef4d $r13: .cfa -32 + ^ .cfa: $rsp 32 +
STACK CFI ef4f $r12: .cfa -40 + ^ .cfa: $rsp 40 +
STACK CFI ef50 $rbp: .cfa -48 + ^ .cfa: $rsp 48 +
STACK CFI ef51 $rbx: .cfa -56 + ^ .cfa: $rsp 56 +
STACK CFI ef5b .cfa: $rsp 272 +
STACK CFI f1b1 .cfa: $rsp 56 +
STACK CFI f1b5 .cfa: $rsp 48 +
STACK CFI f1b6 .cfa: $rsp 40 +
STACK CFI f1b8 .cfa: $rsp 32 +
STACK CFI f1ba .cfa: $rsp 24 +
STACK CFI f1bc .cfa: $rsp 16 +
STACK CFI f1be .cfa: $rsp 8 +
STACK CFI f1c0 .cfa: $rsp 272 +
STACK CFI INIT 3dfc 10 $r12: .cfa -40 + ^ $r13: .cfa -32 + ^ $r14: .cfa -24 + ^ $r15: .cfa -16 + ^ $rbp: .cfa -48 + ^ $rbx: .cfa -56 + ^ .cfa: $rsp 272 + .ra: .cfa -8 + ^
STACK CFI INIT f260 418 .cfa: $rsp 8 + .ra: .cfa -8 + ^
STACK CFI f262 $r15: .cfa -16 + ^ .cfa: $rsp 16 +
STACK CFI f264 $r14: .cfa -24 + ^ .cfa: $rsp 24 +
STACK CFI f26b $r13: .cfa -32 + ^ .cfa: $rsp 32 +
STACK CFI f270 $r12: .cfa -40 + ^ .cfa: $rsp 40 +
STACK CFI f274 $rbp: .cfa -48 + ^ .cfa: $rsp 48 +
STACK CFI f275 $rbx: .cfa -56 + ^ .cfa: $rsp 56 +
STACK CFI f27f .cfa: $rsp 560 +
STACK CFI f325 .cfa: $rsp 56 +
STACK CFI f329 .cfa: $rsp 48 +
STACK CFI f32a .cfa: $rsp 40 +
STACK CFI f32c .cfa: $rsp 32 +
STACK CFI f32e .cfa: $rsp 24 +
STACK CFI f330 .cfa: $rsp 16 +
STACK CFI f332 .cfa: $rsp 8 +
STACK CFI f338 .cfa: $rsp 560 +
STACK CFI INIT 3e0c 2e $r12: .cfa -40 + ^ $r13: .cfa -32 + ^ $r14: .cfa -24 + ^ $r15: .cfa -16 + ^ $rbp: .cfa -48 + ^ $rbx: .cfa -56 + ^ .cfa: $rsp 560 + .ra: .cfa -8 + ^
STACK CFI INIT f680 3a .cfa: $rsp 8 + .ra: .cfa -8 + ^
STACK CFI f688 .cfa: $rsp 24 +
STACK CFI f68e .cfa: $rsp 32 +
STACK CFI f692 .cfa: $rsp 40 +
STACK CFI f698 .cfa: $rsp 48 +
STACK CFI f69a .cfa: $rsp 56 +
STACK CFI f6a6 .cfa: $rsp 64 +
STACK CFI f6b9 .cfa: $rsp 8 +
STACK CFI INIT f6c0 39 .cfa: $rsp 8 + .ra: .cfa -8 + ^
STACK CFI f6c8 .cfa: $rsp 24 +
STACK CFI f6ce .cfa: $rsp 32 +
STACK CFI f6d2 .cfa: $rsp 40 +
STACK CFI f6d8 .cfa: $rsp 48 +
STACK CFI f6da .cfa: $rsp 56 +
STACK CFI f6e3 .cfa: $rsp 64 +
STACK CFI f6f8 .cfa: $rsp 8 +
STACK CFI INIT f700 38 .cfa: $rsp 8 + .ra: .cfa -8 + ^
STACK CFI f708 .cfa: $rsp 24 +
STACK CFI f70e .cfa: $rsp 32 +
STACK CFI f712 .cfa: $rsp 40 +
STACK CFI f718 .cfa: $rsp 48 +
STACK CFI f71c .cfa: $rsp 56 +
STACK CFI f71e .cfa: $rsp 64 +
STACK CFI f737 .cfa: $rsp 8 +
STACK CFI INIT f740 3b .cfa: $rsp 8 + .ra: .cfa -8 + ^
STACK CFI f746 $r12: .cfa -16 + ^ .cfa: $rsp 16 +
STACK CFI f74a .cfa: $rsp 24 +
STACK CFI f750 .cfa: $rsp 32 +
STACK CFI f754 .cfa: $rsp 40 +
STACK CFI f75a .cfa: $rsp 48 +
STACK CFI f75e .cfa: $rsp 56 +
STACK CFI f760 .cfa: $rsp 64 +
STACK CFI f778 .cfa: $rsp 16 +
STACK CFI f77a .cfa: $rsp 8 +
STACK CFI INIT 104f0 34 .cfa: $rsp 8 + .ra: .cfa -8 + ^
STACK CFI 104f5 $rbp: .cfa -16 + ^ .cfa: $rsp 16 +
STACK CFI 104f6 $rbx: .cfa -24 + ^ .cfa: $rsp 24 +
STACK CFI 104fa .cfa: $rsp 32 +
STACK CFI 10521 .cfa: $rsp 24 +
STACK CFI 10522 .cfa: $rsp 16 +
STACK CFI 10523 .cfa: $rsp 8 +
STACK CFI INIT 10530 34 .cfa: $rsp 8 + .ra: .cfa -8 + ^
STACK CFI 10535 $rbp: .cfa -16 + ^ .cfa: $rsp 16 +
STACK CFI 10536 $rbx: .cfa -24 + ^ .cfa: $rsp 24 +
STACK CFI 1053a .cfa: $rsp 32 +
STACK CFI 10561 .cfa: $rsp 24 +
STACK CFI 10562 .cfa: $rsp 16 +
STACK CFI 10563 .cfa: $rsp 8 +
STACK CFI INIT f780 f5 .cfa: $rsp 8 + .ra: .cfa -8 + ^
STACK CFI f785 $rbp: .cfa -16 + ^ .cfa: $rsp 16 +
STACK CFI f78f .cfa: $rbp 16 +
STACK CFI f797 $r13: .cfa -32 + ^ $r14: .cfa -24 + ^
STACK CFI f7a5 $r12: .cfa -40 + ^ $rbx: .cfa -48 + ^
STACK CFI f863 .cfa: $rsp 8 +
STACK CFI f864 .cfa: $rbp 16 +
STACK CFI INIT 3e3a 18 $r12: .cfa -40 + ^ $r13: .cfa -32 + ^ $r14: .cfa -24 + ^ $rbp: .cfa -16 + ^ $rbx: .cfa -48 + ^ .cfa: $rbp 16 + .ra: .cfa -8 + ^
STACK CFI INIT f880 f5 .cfa: $rsp 8 + .ra: .cfa -8 + ^
STACK CFI f885 $rbp: .cfa -16 + ^ .cfa: $rsp 16 +
STACK CFI f88f .cfa: $rbp 16 +
STACK CFI f897 $r13: .cfa -32 + ^ $r14: .cfa -24 + ^
STACK CFI f8a5 $r12: .cfa -40 + ^ $rbx: .cfa -48 + ^
STACK CFI f963 .cfa: $rsp 8 +
STACK CFI f964 .cfa: $rbp 16 +
STACK CFI INIT 3e52 18 $r12: .cfa -40 + ^ $r13: .cfa -32 + ^ $r14: .cfa -24 + ^ $rbp: .cfa -16 + ^ $rbx: .cfa -48 + ^ .cfa: $rbp 16 + .ra: .cfa -8 + ^
STACK CFI INIT f980 406 .cfa: $rsp 8 + .ra: .cfa -8 + ^
STACK CFI f986 $r15: .cfa -16 + ^ .cfa: $rsp 16 +
STACK CFI f98b $r14: .cfa -24 + ^ .cfa: $rsp 24 +
STACK CFI f98d $r13: .cfa -32 + ^ .cfa: $rsp 32 +
STACK CFI f98f $r12: .cfa -40 + ^ .cfa: $rsp 40 +
STACK CFI f990 $rbp: .cfa -48 + ^ .cfa: $rsp 48 +
STACK CFI f991 $rbx: .cfa -56 + ^ .cfa: $rsp 56 +
STACK CFI f99a .cfa: $rsp 608 +
STACK CFI fcce .cfa: $rsp 56 +
STACK CFI fcd2 .cfa: $rsp 48 +
STACK CFI fcd3 .cfa: $rsp 40 +
STACK CFI fcd5 .cfa: $rsp 32 +
STACK CFI fcd7 .cfa: $rsp 24 +
STACK CFI fcd9 .cfa: $rsp 16 +
STACK CFI fcdb .cfa: $rsp 8 +
STACK CFI fce0 .cfa: $rsp 608 +
STACK CFI INIT 3e6a 3b $r12: .cfa -40 + ^ $r13: .cfa -32 + ^ $r14: .cfa -24 + ^ $r15: .cfa -16 + ^ $rbp: .cfa -48 + ^ $rbx: .cfa -56 + ^ .cfa: $rsp 608 + .ra: .cfa -8 + ^
STACK CFI INIT 10570 1e6 .cfa: $rsp 8 + .ra: .cfa -8 + ^
STACK CFI 10576 $r13: .cfa -16 + ^ .cfa: $rsp 16 +
STACK CFI 1057a $r12: .cfa -24 + ^ .cfa: $rsp 24 +
STACK CFI 1057b $rbp: .cfa -32 + ^ .cfa: $rsp 32 +
STACK CFI 1057c $rbx: .cfa -40 + ^ .cfa: $rsp 40 +
STACK CFI 10586 .cfa: $rsp 80 +
STACK CFI 105e3 .cfa: $rsp 40 +
STACK CFI 105e7 .cfa: $rsp 32 +
STACK CFI 105e8 .cfa: $rsp 24 +
STACK CFI 105ea .cfa: $rsp 16 +
STACK CFI 105ec .cfa: $rsp 8 +
STACK CFI 105f0 .cfa: $rsp 80 +
STACK CFI INIT 10760 25 .cfa: $rsp 8 + .ra: .cfa -8 + ^
STACK CFI 10761 .cfa: $rsp 16 +
STACK CFI 10762 .cfa: $rsp 8 +
STACK CFI 10780 .cfa: $rsp 16 +
STACK CFI INIT 10790 25 .cfa: $rsp 8 + .ra: .cfa -8 + ^
STACK CFI 10791 .cfa: $rsp 16 +
STACK CFI 10792 .cfa: $rsp 8 +
STACK CFI 107b0 .cfa: $rsp 16 +
STACK CFI INIT 107c0 1e .cfa: $rsp 8 + .ra: .cfa -8 + ^
STACK CFI INIT 107e0 83 .cfa: $rsp 8 + .ra: .cfa -8 + ^
STACK CFI 107e6 $r12: .cfa -16 + ^ .cfa: $rsp 16 +
STACK CFI 107e7 $rbp: .cfa -24 + ^ .cfa: $rsp 24 +
STACK CFI 107eb $rbx: .cfa -32 + ^ .cfa: $rsp 32 +
STACK CFI 1081c .cfa: $rsp 24 +
STACK CFI 10824 .cfa: $rsp 16 +
STACK CFI 10826 .cfa: $rsp 8 +
STACK CFI 10830 .cfa: $rsp 32 +
STACK CFI 1083c .cfa: $rsp 24 +
STACK CFI 10841 .cfa: $rsp 16 +
STACK CFI 10843 .cfa: $rsp 8 +
STACK CFI 10844 .cfa: $rsp 32 +
STACK CFI INIT 10870 30 .cfa: $rsp 8 + .ra: .cfa -8 + ^
STACK CFI 10881 .cfa: $rsp 16 +
STACK CFI INIT 108a0 6b .cfa: $rsp 8 + .ra: .cfa -8 + ^
STACK CFI 108a6 $r12: .cfa -16 + ^ .cfa: $rsp 16 +
STACK CFI 108ad $rbp: .cfa -24 + ^ .cfa: $rsp 24 +
STACK CFI 108ae $rbx: .cfa -32 + ^ .cfa: $rsp 32 +
STACK CFI 108bc .cfa: $rsp 24 +
STACK CFI 108bd .cfa: $rsp 16 +
STACK CFI 108bf .cfa: $rsp 8 +
STACK CFI 108c0 .cfa: $rsp 32 +
STACK CFI 108f4 .cfa: $rsp 24 +
STACK CFI 108f5 .cfa: $rsp 16 +
STACK CFI 108f7 .cfa: $rsp 8 +
STACK CFI 10900 .cfa: $rsp 32 +
STACK CFI INIT 10910 1e .cfa: $rsp 8 + .ra: .cfa -8 + ^
STACK CFI 10924 .cfa: $rsp 16 +
STACK CFI 1092d .cfa: $rsp 8 +
STACK CFI INIT 10930 c0 .cfa: $rsp 8 + .ra: .cfa -8 + ^
STACK CFI 10936 $r13: .cfa -16 + ^ .cfa: $rsp 16 +
STACK CFI 10938 $r12: .cfa -24 + ^ .cfa: $rsp 24 +
STACK CFI 10939 $rbp: .cfa -32 + ^ .cfa: $rsp 32 +
STACK CFI 1093a $rbx: .cfa -40 + ^ .cfa: $rsp 40 +
STACK CFI 1093e .cfa: $rsp 48 +
STACK CFI 10976 .cfa: $rsp 40 +
STACK CFI 10977 .cfa: $rsp 32 +
STACK CFI 10978 .cfa: $rsp 24 +
STACK CFI 1097a .cfa: $rsp 16 +
STACK CFI 1097c .cfa: $rsp 8 +
STACK CFI 10980 .cfa: $rsp 48 +
STACK CFI INIT 109f0 10a .cfa: $rsp 8 + .ra: .cfa -8 + ^
STACK CFI 109f5 $rbp: .cfa -16 + ^ .cfa: $rsp 16 +
STACK CFI 109f6 $rbx: .cfa -24 + ^ .cfa: $rsp 24 +
STACK CFI 109fa .cfa: $rsp 32 +
STACK CFI 10a4c .cfa: $rsp 24 +
STACK CFI 10a4f .cfa: $rsp 16 +
STACK CFI 10a50 .cfa: $rsp 8 +
STACK CFI 10a58 .cfa: $rsp 32 +
STACK CFI 10a7d .cfa: $rsp 24 +
STACK CFI 10a7e .cfa: $rsp 16 +
STACK CFI 10a7f .cfa: $rsp 8 +
STACK CFI 10a80 .cfa: $rsp 32 +
STACK CFI INIT 10b00 f2 .cfa: $rsp 8 + .ra: .cfa -8 + ^
STACK CFI 10b06 $r15: .cfa -16 + ^ .cfa: $rsp 16 +
STACK CFI 10b08 $r14: .cfa -24 + ^ .cfa: $rsp 24 +
STACK CFI 10b0a $r13: .cfa -32 + ^ .cfa: $rsp 32 +
STACK CFI 10b0c $r12: .cfa -40 + ^ .cfa: $rsp 40 +
STACK CFI 10b0d $rbp: .cfa -48 + ^ .cfa: $rsp 48 +
STACK CFI 10b0e $rbx: .cfa -56 + ^ .cfa: $rsp 56 +
STACK CFI 10b12 .cfa: $rsp 80 +
STACK CFI 10bbc .cfa: $rsp 56 +
STACK CFI 10bbd .cfa: $rsp 48 +
STACK CFI 10bbe .cfa: $rsp 40 +
STACK CFI 10bc0 .cfa: $rsp 32 +
STACK CFI 10bc2 .cfa: $rsp 24 +
STACK CFI 10bc4 .cfa: $rsp 16 +
STACK CFI 10bc6 .cfa: $rsp 8 +
STACK CFI 10bc7 .cfa: $rsp 80 +
STACK CFI INIT 10c00 ef .cfa: $rsp 8 + .ra: .cfa -8 + ^
STACK CFI 10c06 $r15: .cfa -16 + ^ .cfa: $rsp 16 +
STACK CFI 10c08 $r14: .cfa -24 + ^ .cfa: $rsp 24 +
STACK CFI 10c0a $r13: .cfa -32 + ^ .cfa: $rsp 32 +
STACK CFI 10c0c $r12: .cfa -40 + ^ .cfa: $rsp 40 +
STACK CFI 10c0d $rbp: .cfa -48 + ^ .cfa: $rsp 48 +
STACK CFI 10c0e $rbx: .cfa -56 + ^ .cfa: $rsp 56 +
STACK CFI 10c12 .cfa: $rsp 80 +
STACK CFI 10cb9 .cfa: $rsp 56 +
STACK CFI 10cba .cfa: $rsp 48 +
STACK CFI 10cbb .cfa: $rsp 40 +
STACK CFI 10cbd .cfa: $rsp 32 +
STACK CFI 10cbf .cfa: $rsp 24 +
STACK CFI 10cc1 .cfa: $rsp 16 +
STACK CFI 10cc3 .cfa: $rsp 8 +
STACK CFI 10cc4 .cfa: $rsp 80 +
STACK CFI INIT 10cf0 45 .cfa: $rsp 8 + .ra: .cfa -8 + ^
STACK CFI 10cf5 $rbx: .cfa -16 + ^ .cfa: $rsp 16 +
STACK CFI 10d12 .cfa: $rsp 8 +
STACK CFI 10d16 .cfa: $rsp 16 +
STACK CFI INIT 10d40 8d .cfa: $rsp 8 + .ra: .cfa -8 + ^
STACK CFI 10d48 .cfa: $rsp 16 +
STACK CFI 10d6b .cfa: $rsp 8 +
STACK CFI 10d70 .cfa: $rsp 16 +
STACK CFI INIT 10dd0 e7 .cfa: $rsp 8 + .ra: .cfa -8 + ^
STACK CFI 10dd6 $r12: .cfa -16 + ^ .cfa: $rsp 16 +
STACK CFI 10dd7 $rbp: .cfa -24 + ^ .cfa: $rsp 24 +
STACK CFI 10ddb $rbx: .cfa -32 + ^ .cfa: $rsp 32 +
STACK CFI 10ddf .cfa: $rsp 64 +
STACK CFI 10e3c .cfa: $rsp 32 +
STACK CFI 10e3d .cfa: $rsp 24 +
STACK CFI 10e3e .cfa: $rsp 16 +
STACK CFI 10e40 .cfa: $rsp 8 +
STACK CFI 10e48 .cfa: $rsp 64 +
STACK CFI INIT 10ee0 203 .cfa: $rsp 8 + .ra: .cfa -8 + ^
STACK CFI 10ee6 $r15: .cfa -16 + ^ .cfa: $rsp 16 +
STACK CFI 10ee8 $r14: .cfa -24 + ^ .cfa: $rsp 24 +
STACK CFI 10eea $r13: .cfa -32 + ^ .cfa: $rsp 32 +
STACK CFI 10eec $r12: .cfa -40 + ^ .cfa: $rsp 40 +
STACK CFI 10eed $rbp: .cfa -48 + ^ .cfa: $rsp 48 +
STACK CFI 10eee $rbx: .cfa -56 + ^ .cfa: $rsp 56 +
STACK CFI 10ef2 .cfa: $rsp 128 +
STACK CFI 10fda .cfa: $rsp 56 +
STACK CFI 10fde .cfa: $rsp 48 +
STACK CFI 10fdf .cfa: $rsp 40 +
STACK CFI 10fe1 .cfa: $rsp 32 +
STACK CFI 10fe3 .cfa: $rsp 24 +
STACK CFI 10fe5 .cfa: $rsp 16 +
STACK CFI 10fe7 .cfa: $rsp 8 +
STACK CFI 10ff0 .cfa: $rsp 128 +
STACK CFI INIT 10ec0 9 .cfa: $rsp 8 + .ra: .cfa -8 + ^
STACK CFI INIT 110f0 203 .cfa: $rsp 8 + .ra: .cfa -8 + ^
STACK CFI 110f6 $r15: .cfa -16 + ^ .cfa: $rsp 16 +
STACK CFI 110f8 $r14: .cfa -24 + ^ .cfa: $rsp 24 +
STACK CFI 110fa $r13: .cfa -32 + ^ .cfa: $rsp 32 +
STACK CFI 110fc $r12: .cfa -40 + ^ .cfa: $rsp 40 +
STACK CFI 110fd $rbp: .cfa -48 + ^ .cfa: $rsp 48 +
STACK CFI 110fe $rbx: .cfa -56 + ^ .cfa: $rsp 56 +
STACK CFI 11102 .cfa: $rsp 128 +
STACK CFI 111e9 .cfa: $rsp 56 +
STACK CFI 111ed .cfa: $rsp 48 +
STACK CFI 111ee .cfa: $rsp 40 +
STACK CFI 111f0 .cfa: $rsp 32 +
STACK CFI 111f2 .cfa: $rsp 24 +
STACK CFI 111f4 .cfa: $rsp 16 +
STACK CFI 111f6 .cfa: $rsp 8 +
STACK CFI 11200 .cfa: $rsp 128 +
STACK CFI INIT 10ed0 9 .cfa: $rsp 8 + .ra: .cfa -8 + ^
STACK CFI INIT 11300 a9 .cfa: $rsp 8 + .ra: .cfa -8 + ^
STACK CFI 11306 $r15: .cfa -16 + ^ .cfa: $rsp 16 +
STACK CFI 1130c $r14: .cfa -24 + ^ .cfa: $rsp 24 +
STACK CFI 1130e $r13: .cfa -32 + ^ .cfa: $rsp 32 +
STACK CFI 11310 $r12: .cfa -40 + ^ .cfa: $rsp 40 +
STACK CFI 11314 $rbp: .cfa -48 + ^ .cfa: $rsp 48 +
STACK CFI 11318 $rbx: .cfa -56 + ^ .cfa: $rsp 56 +
STACK CFI 11320 .cfa: $rsp 96 +
STACK CFI 11395 .cfa: $rsp 56 +
STACK CFI 11396 .cfa: $rsp 48 +
STACK CFI 11397 .cfa: $rsp 40 +
STACK CFI 11399 .cfa: $rsp 32 +
STACK CFI 1139b .cfa: $rsp 24 +
STACK CFI 1139d .cfa: $rsp 16 +
STACK CFI 1139f .cfa: $rsp 8 +
STACK CFI 113a0 .cfa: $rsp 96 +
STACK CFI INIT 113b0 75 .cfa: $rsp 8 + .ra: .cfa -8 + ^
STACK CFI 113b5 $rbx: .cfa -16 + ^ .cfa: $rsp 16 +
STACK CFI 113c3 .cfa: $rsp 64 +
STACK CFI 1141e .cfa: $rsp 16 +
STACK CFI 1141f .cfa: $rsp 8 +
STACK CFI 11420 .cfa: $rsp 64 +
STACK CFI INIT 11430 1d9 .cfa: $rsp 8 + .ra: .cfa -8 + ^
STACK CFI 11436 $r15: .cfa -16 + ^ .cfa: $rsp 16 +
STACK CFI 11438 $r14: .cfa -24 + ^ .cfa: $rsp 24 +
STACK CFI 1143a $r13: .cfa -32 + ^ .cfa: $rsp 32 +
STACK CFI 1143c $r12: .cfa -40 + ^ .cfa: $rsp 40 +
STACK CFI 11440 $rbp: .cfa -48 + ^ .cfa: $rsp 48 +
STACK CFI 11441 $rbx: .cfa -56 + ^ .cfa: $rsp 56 +
STACK CFI 11445 .cfa: $rsp 96 +
STACK CFI 11578 .cfa: $rsp 56 +
STACK CFI 1157c .cfa: $rsp 48 +
STACK CFI 1157d .cfa: $rsp 40 +
STACK CFI 1157f .cfa: $rsp 32 +
STACK CFI 11581 .cfa: $rsp 24 +
STACK CFI 11583 .cfa: $rsp 16 +
STACK CFI 11585 .cfa: $rsp 8 +
STACK CFI 11590 .cfa: $rsp 96 +
STACK CFI INIT 3ea5 22 $r12: .cfa -40 + ^ $r13: .cfa -32 + ^ $r14: .cfa -24 + ^ $r15: .cfa -16 + ^ $rbp: .cfa -48 + ^ $rbx: .cfa -56 + ^ .cfa: $rsp 96 + .ra: .cfa -8 + ^
STACK CFI INIT 11810 2e2 .cfa: $rsp 8 + .ra: .cfa -8 + ^
STACK CFI 1181f $r15: .cfa -16 + ^ .cfa: $rsp 16 +
STACK CFI 11821 $r14: .cfa -24 + ^ .cfa: $rsp 24 +
STACK CFI 11823 $r13: .cfa -32 + ^ .cfa: $rsp 32 +
STACK CFI 11828 $r12: .cfa -40 + ^ .cfa: $rsp 40 +
STACK CFI 1182c $rbp: .cfa -48 + ^ .cfa: $rsp 48 +
STACK CFI 11830 $rbx: .cfa -56 + ^ .cfa: $rsp 56 +
STACK CFI 11834 .cfa: $rsp 80 +
STACK CFI 118d1 .cfa: $rsp 56 +
STACK CFI 118d2 .cfa: $rsp 48 +
STACK CFI 118d3 .cfa: $rsp 40 +
STACK CFI 118d5 .cfa: $rsp 32 +
STACK CFI 118d7 .cfa: $rsp 24 +
STACK CFI 118d9 .cfa: $rsp 16 +
STACK CFI 118db .cfa: $rsp 8 +
STACK CFI 118e0 $r12: $r12 $r13: $r13 $r14: $r14 $r15: $r15 $rbp: $rbp $rbx: $rbx
STACK CFI 118e8 $r12: .cfa -40 + ^ $r13: .cfa -32 + ^ $r14: .cfa -24 + ^ $r15: .cfa -16 + ^ $rbp: .cfa -48 + ^ $rbx: .cfa -56 + ^ .cfa: $rsp 80 +
STACK CFI 11941 .cfa: $rsp 56 +
STACK CFI 11942 .cfa: $rsp 48 +
STACK CFI 11943 .cfa: $rsp 40 +
STACK CFI 11945 .cfa: $rsp 32 +
STACK CFI 11947 .cfa: $rsp 24 +
STACK CFI 11949 .cfa: $rsp 16 +
STACK CFI 1194b .cfa: $rsp 8 +
STACK CFI 11950 .cfa: $rsp 80 +
STACK CFI 11a2a .cfa: $rsp 56 +
STACK CFI 11a2b .cfa: $rsp 48 +
STACK CFI 11a2c .cfa: $rsp 40 +
STACK CFI 11a2e .cfa: $rsp 32 +
STACK CFI 11a30 .cfa: $rsp 24 +
STACK CFI 11a32 .cfa: $rsp 16 +
STACK CFI 11a34 .cfa: $rsp 8 +
STACK CFI 11a38 .cfa: $rsp 80 +
STACK CFI INIT 11b00 1c6 .cfa: $rsp 8 + .ra: .cfa -8 + ^
STACK CFI 11b19 $r15: .cfa -16 + ^ .cfa: $rsp 16 +
STACK CFI 11b1b $r14: .cfa -24 + ^ .cfa: $rsp 24 +
STACK CFI 11b1d $r13: .cfa -32 + ^ .cfa: $rsp 32 +
STACK CFI 11b1f $r12: .cfa -40 + ^ .cfa: $rsp 40 +
STACK CFI 11b23 $rbp: .cfa -48 + ^ .cfa: $rsp 48 +
STACK CFI 11b24 $rbx: .cfa -56 + ^ .cfa: $rsp 56 +
STACK CFI 11b2b .cfa: $rsp 80 +
STACK CFI 11be1 .cfa: $rsp 56 +
STACK CFI 11be2 .cfa: $rsp 48 +
STACK CFI 11be3 .cfa: $rsp 40 +
STACK CFI 11be5 .cfa: $rsp 32 +
STACK CFI 11be7 .cfa: $rsp 24 +
STACK CFI 11be9 .cfa: $rsp 16 +
STACK CFI 11beb .cfa: $rsp 8 +
STACK CFI 11bf0 .cfa: $rsp 80 +
STACK CFI 11c26 .cfa: $rsp 56 +
STACK CFI 11c27 .cfa: $rsp 48 +
STACK CFI 11c28 .cfa: $rsp 40 +
STACK CFI 11c2a .cfa: $rsp 32 +
STACK CFI 11c2c .cfa: $rsp 24 +
STACK CFI 11c2e .cfa: $rsp 16 +
STACK CFI 11c30 .cfa: $rsp 8 +
STACK CFI 11c38 $r12: $r12 $r13: $r13 $r14: $r14 $r15: $r15 $rbp: $rbp $rbx: $rbx
STACK CFI 11c40 $r12: .cfa -40 + ^ $r13: .cfa -32 + ^ $r14: .cfa -24 + ^ $r15: .cfa -16 + ^ $rbp: .cfa -48 + ^ $rbx: .cfa -56 + ^ .cfa: $rsp 80 +
STACK CFI INIT 11610 fc .cfa: $rsp 8 + .ra: .cfa -8 + ^
STACK CFI 11616 $r13: .cfa -16 + ^ .cfa: $rsp 16 +
STACK CFI 11618 $r12: .cfa -24 + ^ .cfa: $rsp 24 +
STACK CFI 11619 $rbp: .cfa -32 + ^ .cfa: $rsp 32 +
STACK CFI 1161d $rbx: .cfa -40 + ^ .cfa: $rsp 40 +
STACK CFI 11624 .cfa: $rsp 80 +
STACK CFI 116d5 .cfa: $rsp 40 +
STACK CFI 116d6 .cfa: $rsp 32 +
STACK CFI 116d7 .cfa: $rsp 24 +
STACK CFI 116d9 .cfa: $rsp 16 +
STACK CFI 116db .cfa: $rsp 8 +
STACK CFI 116e0 .cfa: $rsp 80 +
STACK CFI INIT 11710 fc .cfa: $rsp 8 + .ra: .cfa -8 + ^
STACK CFI 11716 $r13: .cfa -16 + ^ .cfa: $rsp 16 +
STACK CFI 11718 $r12: .cfa -24 + ^ .cfa: $rsp 24 +
STACK CFI 1171c $rbp: .cfa -32 + ^ .cfa: $rsp 32 +
STACK CFI 11723 .cfa: $rsp 64 +
STACK CFI 117d3 .cfa: $rsp 32 +
STACK CFI 117d4 .cfa: $rsp 24 +
STACK CFI 117d6 .cfa: $rsp 16 +
STACK CFI 117d8 .cfa: $rsp 8 +
STACK CFI 117e0 .cfa: $rsp 64 +
STACK CFI INIT 11cd0 23 .cfa: $rsp 8 + .ra: .cfa -8 + ^
STACK CFI 11cd8 .cfa: $rsp 16 +
STACK CFI 11cf2 .cfa: $rsp 8 +
STACK CFI INIT 11d00 9 .cfa: $rsp 8 + .ra: .cfa -8 + ^
STACK CFI INIT 11d10 478 .cfa: $rsp 8 + .ra: .cfa -8 + ^
STACK CFI 11d16 $r15: .cfa -16 + ^ .cfa: $rsp 16 +
STACK CFI 11d18 $r14: .cfa -24 + ^ .cfa: $rsp 24 +
STACK CFI 11d1a $r13: .cfa -32 + ^ .cfa: $rsp 32 +
STACK CFI 11d1c $r12: .cfa -40 + ^ .cfa: $rsp 40 +
STACK CFI 11d1d $rbp: .cfa -48 + ^ .cfa: $rsp 48 +
STACK CFI 11d1e $rbx: .cfa -56 + ^ .cfa: $rsp 56 +
STACK CFI 11d22 .cfa: $rsp 112 +
STACK CFI 11d6f .cfa: $rsp 56 +
STACK CFI 11d73 .cfa: $rsp 48 +
STACK CFI 11d74 .cfa: $rsp 40 +
STACK CFI 11d76 .cfa: $rsp 32 +
STACK CFI 11d78 .cfa: $rsp 24 +
STACK CFI 11d7a .cfa: $rsp 16 +
STACK CFI 11d7c .cfa: $rsp 8 +
STACK CFI 11d80 .cfa: $rsp 112 +
STACK CFI INIT 12190 155 .cfa: $rsp 8 + .ra: .cfa -8 + ^
STACK CFI 12196 $r13: .cfa -16 + ^ .cfa: $rsp 16 +
STACK CFI 1219b $r12: .cfa -24 + ^ .cfa: $rsp 24 +
STACK CFI 1219c $rbp: .cfa -32 + ^ .cfa: $rsp 32 +
STACK CFI 121a0 $rbx: .cfa -40 + ^ .cfa: $rsp 40 +
STACK CFI 121a7 .cfa: $rsp 96 +
STACK CFI 121db .cfa: $rsp 40 +
STACK CFI 121df .cfa: $rsp 32 +
STACK CFI 121e0 .cfa: $rsp 24 +
STACK CFI 121e2 .cfa: $rsp 16 +
STACK CFI 121e4 .cfa: $rsp 8 +
STACK CFI 121e8 .cfa: $rsp 96 +
STACK CFI INIT 125a0 2c4 .cfa: $rsp 8 + .ra: .cfa -8 + ^
STACK CFI 125a6 $r15: .cfa -16 + ^ .cfa: $rsp 16 +
STACK CFI 125a8 $r14: .cfa -24 + ^ .cfa: $rsp 24 +
STACK CFI 125aa $r13: .cfa -32 + ^ .cfa: $rsp 32 +
STACK CFI 125ac $r12: .cfa -40 + ^ .cfa: $rsp 40 +
STACK CFI 125ad $rbp: .cfa -48 + ^ .cfa: $rsp 48 +
STACK CFI 125ae $rbx: .cfa -56 + ^ .cfa: $rsp 56 +
STACK CFI 125b2 .cfa: $rsp 128 +
STACK CFI 126b0 .cfa: $rsp 56 +
STACK CFI 126b1 .cfa: $rsp 48 +
STACK CFI 126b2 .cfa: $rsp 40 +
STACK CFI 126b4 .cfa: $rsp 32 +
STACK CFI 126b6 .cfa: $rsp 24 +
STACK CFI 126b8 .cfa: $rsp 16 +
STACK CFI 126ba .cfa: $rsp 8 +
STACK CFI 126c0 .cfa: $rsp 128 +
STACK CFI INIT 122f0 2ae .cfa: $rsp 8 + .ra: .cfa -8 + ^
STACK CFI 122f6 $r15: .cfa -16 + ^ .cfa: $rsp 16 +
STACK CFI 122f8 $r14: .cfa -24 + ^ .cfa: $rsp 24 +
STACK CFI 122fa $r13: .cfa -32 + ^ .cfa: $rsp 32 +
STACK CFI 122fc $r12: .cfa -40 + ^ .cfa: $rsp 40 +
STACK CFI 122fd $rbp: .cfa -48 + ^ .cfa: $rsp 48 +
STACK CFI 122fe $rbx: .cfa -56 + ^ .cfa: $rsp 56 +
STACK CFI 12302 .cfa: $rsp 112 +
STACK CFI 12353 .cfa: $rsp 56 +
STACK CFI 12357 .cfa: $rsp 48 +
STACK CFI 12358 .cfa: $rsp 40 +
STACK CFI 1235a .cfa: $rsp 32 +
STACK CFI 1235c .cfa: $rsp 24 +
STACK CFI 1235e .cfa: $rsp 16 +
STACK CFI 12360 .cfa: $rsp 8 +
STACK CFI 12368 .cfa: $rsp 112 +
STACK CFI INIT 12870 ea .cfa: $rsp 8 + .ra: .cfa -8 + ^
STACK CFI 12872 $r15: .cfa -16 + ^ .cfa: $rsp 16 +
STACK CFI 12874 $r14: .cfa -24 + ^ .cfa: $rsp 24 +
STACK CFI 12876 $r13: .cfa -32 + ^ .cfa: $rsp 32 +
STACK CFI 12878 $r12: .cfa -40 + ^ .cfa: $rsp 40 +
STACK CFI 1287c $rbp: .cfa -48 + ^ .cfa: $rsp 48 +
STACK CFI 1287d $rbx: .cfa -56 + ^ .cfa: $rsp 56 +
STACK CFI 12881 .cfa: $rsp 80 +
STACK CFI 1292f .cfa: $rsp 56 +
STACK CFI 12933 .cfa: $rsp 48 +
STACK CFI 12934 .cfa: $rsp 40 +
STACK CFI 12936 .cfa: $rsp 32 +
STACK CFI 12938 .cfa: $rsp 24 +
STACK CFI 1293a .cfa: $rsp 16 +
STACK CFI 1293c .cfa: $rsp 8 +
STACK CFI 1293d .cfa: $rsp 80 +
STACK CFI INIT 3ec8 10 $r12: .cfa -40 + ^ $r13: .cfa -32 + ^ $r14: .cfa -24 + ^ $r15: .cfa -16 + ^ $rbp: .cfa -48 + ^ $rbx: .cfa -56 + ^ .cfa: $rsp 80 + .ra: .cfa -8 + ^
STACK CFI INIT 12960 317 .cfa: $rsp 8 + .ra: .cfa -8 + ^
STACK CFI 1296e $r15: .cfa -16 + ^ .cfa: $rsp 16 +
STACK CFI 12973 $r14: .cfa -24 + ^ .cfa: $rsp 24 +
STACK CFI 12975 $r13: .cfa -32 + ^ .cfa: $rsp 32 +
STACK CFI 12977 $r12: .cfa -40 + ^ .cfa: $rsp 40 +
STACK CFI 12978 $rbp: .cfa -48 + ^ .cfa: $rsp 48 +
STACK CFI 12979 $rbx: .cfa -56 + ^ .cfa: $rsp 56 +
STACK CFI 12980 .cfa: $rsp 96 +
STACK CFI 129bf .cfa: $rsp 56 +
STACK CFI 129c3 .cfa: $rsp 48 +
STACK CFI 129c4 .cfa: $rsp 40 +
STACK CFI 129c6 .cfa: $rsp 32 +
STACK CFI 129c8 .cfa: $rsp 24 +
STACK CFI 129ca .cfa: $rsp 16 +
STACK CFI 129cc .cfa: $rsp 8 +
STACK CFI 129d0 .cfa: $rsp 96 +
STACK CFI 12ae3 $r12: $r12 $r13: $r13 $r14: $r14 $r15: $r15 $rbp: $rbp $rbx: $rbx .cfa: $rsp 8 +
STACK CFI 12ae6 $r12: .cfa -40 + ^ $r13: .cfa -32 + ^ $r14: .cfa -24 + ^ $r15: .cfa -16 + ^ $rbp: .cfa -48 + ^ $rbx: .cfa -56 + ^ .cfa: $rsp 96 +
STACK CFI INIT 12c80 d3 .cfa: $rsp 8 + .ra: .cfa -8 + ^
STACK CFI 12c86 $r13: .cfa -16 + ^ .cfa: $rsp 16 +
STACK CFI 12c88 $r12: .cfa -24 + ^ .cfa: $rsp 24 +
STACK CFI 12c8d $rbp: .cfa -32 + ^ .cfa: $rsp 32 +
STACK CFI 12c8e $rbx: .cfa -40 + ^ .cfa: $rsp 40 +
STACK CFI 12c92 .cfa: $rsp 64 +
STACK CFI 12cf3 .cfa: $rsp 40 +
STACK CFI 12cf4 .cfa: $rsp 32 +
STACK CFI 12cf5 .cfa: $rsp 24 +
STACK CFI 12cf7 .cfa: $rsp 16 +
STACK CFI 12cf9 .cfa: $rsp 8 +
STACK CFI 12d00 .cfa: $rsp 64 +
STACK CFI INIT 12d60 95 .cfa: $rsp 8 + .ra: .cfa -8 + ^
STACK CFI 12d66 $r12: .cfa -16 + ^ .cfa: $rsp 16 +
STACK CFI 12d76 .cfa: $rsp 48 +
STACK CFI 12dea .cfa: $rsp 16 +
STACK CFI 12def .cfa: $rsp 8 +
STACK CFI 12df0 .cfa: $rsp 48 +
STACK CFI INIT 12e00 4f .cfa: $rsp 8 + .ra: .cfa -8 + ^
STACK CFI 12e06 $r12: .cfa -16 + ^ .cfa: $rsp 16 +
STACK CFI 12e0d .cfa: $rsp 32 +
STACK CFI 12e44 .cfa: $rsp 16 +
STACK CFI 12e49 .cfa: $rsp 8 +
STACK CFI 12e4a .cfa: $rsp 32 +
STACK CFI INIT 131b0 25a .cfa: $rsp 8 + .ra: .cfa -8 + ^
STACK CFI 131c5 $r15: .cfa -16 + ^ .cfa: $rsp 16 +
STACK CFI 131c7 $r14: .cfa -24 + ^ .cfa: $rsp 24 +
STACK CFI 131c9 $r13: .cfa -32 + ^ .cfa: $rsp 32 +
STACK CFI 131cb $r12: .cfa -40 + ^ .cfa: $rsp 40 +
STACK CFI 131cc $rbp: .cfa -48 + ^ .cfa: $rsp 48 +
STACK CFI 131d0 $rbx: .cfa -56 + ^ .cfa: $rsp 56 +
STACK CFI 131da .cfa: $rsp 80 +
STACK CFI 1320f .cfa: $rsp 56 +
STACK CFI 13210 .cfa: $rsp 48 +
STACK CFI 13211 .cfa: $rsp 40 +
STACK CFI 13213 .cfa: $rsp 32 +
STACK CFI 13215 .cfa: $rsp 24 +
STACK CFI 13217 .cfa: $rsp 16 +
STACK CFI 13219 .cfa: $rsp 8 +
STACK CFI 13220 $r12: $r12 $r13: $r13 $r14: $r14 $r15: $r15 $rbp: $rbp $rbx: $rbx
STACK CFI 13228 $r12: .cfa -40 + ^ $r13: .cfa -32 + ^ $r14: .cfa -24 + ^ $r15: .cfa -16 + ^ $rbp: .cfa -48 + ^ $rbx: .cfa -56 + ^ .cfa: $rsp 80 +
STACK CFI 132a9 .cfa: $rsp 56 +
STACK CFI 132aa .cfa: $rsp 48 +
STACK CFI 132ab .cfa: $rsp 40 +
STACK CFI 132ad .cfa: $rsp 32 +
STACK CFI 132af .cfa: $rsp 24 +
STACK CFI 132b1 .cfa: $rsp 16 +
STACK CFI 132b3 .cfa: $rsp 8 +
STACK CFI 132b8 .cfa: $rsp 80 +
STACK CFI INIT 12e50 2c9 .cfa: $rsp 8 + .ra: .cfa -8 + ^
STACK CFI 12e56 $r15: .cfa -16 + ^ .cfa: $rsp 16 +
STACK CFI 12e5d $r14: .cfa -24 + ^ .cfa: $rsp 24 +
STACK CFI 12e5f $r13: .cfa -32 + ^ .cfa: $rsp 32 +
STACK CFI 12e64 $r12: .cfa -40 + ^ .cfa: $rsp 40 +
STACK CFI 12e65 $rbp: .cfa -48 + ^ .cfa: $rsp 48 +
STACK CFI 12e66 $rbx: .cfa -56 + ^ .cfa: $rsp 56 +
STACK CFI 12e77 .cfa: $rsp 224 +
STACK CFI 12ede .cfa: $rsp 56 +
STACK CFI 12ee2 .cfa: $rsp 48 +
STACK CFI 12ee3 .cfa: $rsp 40 +
STACK CFI 12ee5 .cfa: $rsp 32 +
STACK CFI 12ee7 .cfa: $rsp 24 +
STACK CFI 12ee9 .cfa: $rsp 16 +
STACK CFI 12eeb .cfa: $rsp 8 +
STACK CFI 12ef0 .cfa: $rsp 224 +
STACK CFI INIT 3ed8 43 $r12: .cfa -40 + ^ $r13: .cfa -32 + ^ $r14: .cfa -24 + ^ $r15: .cfa -16 + ^ $rbp: .cfa -48 + ^ $rbx: .cfa -56 + ^ .cfa: $rsp 224 + .ra: .cfa -8 + ^
STACK CFI INIT 13120 86 .cfa: $rsp 8 + .ra: .cfa -8 + ^
STACK CFI 13126 $r13: .cfa -16 + ^ .cfa: $rsp 16 +
STACK CFI 1312a $r12: .cfa -24 + ^ .cfa: $rsp 24 +
STACK CFI 1312b $rbp: .cfa -32 + ^ .cfa: $rsp 32 +
STACK CFI 13132 .cfa: $rsp 64 +
STACK CFI 13180 .cfa: $rsp 32 +
STACK CFI 13184 .cfa: $rsp 24 +
STACK CFI 13186 .cfa: $rsp 16 +
STACK CFI 13188 .cfa: $rsp 8 +
STACK CFI 13190 .cfa: $rsp 64 +
STACK CFI INIT 3f1c 10 $r12: .cfa -24 + ^ $r13: .cfa -16 + ^ $rbp: .cfa -32 + ^ .cfa: $rsp 64 + .ra: .cfa -8 + ^
STACK CFI INIT 13570 25 .cfa: $rsp 8 + .ra: .cfa -8 + ^
STACK CFI 13578 .cfa: $rsp 16 +
STACK CFI 1358a .cfa: $rsp 8 +
STACK CFI INIT 13410 ea .cfa: $rsp 8 + .ra: .cfa -8 + ^
STACK CFI 13416 $r12: .cfa -16 + ^ .cfa: $rsp 16 +
STACK CFI 13421 $rbp: .cfa -24 + ^ .cfa: $rsp 24 +
STACK CFI 13425 $rbx: .cfa -32 + ^ .cfa: $rsp 32 +
STACK CFI 13434 .cfa: $rsp 24 +
STACK CFI 13452 .cfa: $rsp 16 +
STACK CFI 13454 .cfa: $rsp 8 +
STACK CFI 13458 .cfa: $rsp 32 +
STACK CFI INIT 13500 70 .cfa: $rsp 8 + .ra: .cfa -8 + ^
STACK CFI 13505 $rbx: .cfa -16 + ^ .cfa: $rsp 16 +
STACK CFI 13527 .cfa: $rsp 24 +
STACK CFI 1352b .cfa: $rsp 32 +
STACK CFI 13530 .cfa: $rsp 40 +
STACK CFI 13535 .cfa: $rsp 48 +
STACK CFI 13546 .cfa: $rsp 16 +
STACK CFI 13550 .cfa: $rsp 8 +
STACK CFI 13551 .cfa: $rsp 16 +
STACK CFI INIT 135a0 21 .cfa: $rsp 8 + .ra: .cfa -8 + ^
STACK CFI INIT 135d0 53 .cfa: $rsp 8 + .ra: .cfa -8 + ^
STACK CFI INIT 13630 3e .cfa: $rsp 8 + .ra: .cfa -8 + ^
STACK CFI INIT 13670 54 .cfa: $rsp 8 + .ra: .cfa -8 + ^
STACK CFI INIT 136d0 39 .cfa: $rsp 8 + .ra: .cfa -8 + ^
STACK CFI INIT 13710 4b .cfa: $rsp 8 + .ra: .cfa -8 + ^
STACK CFI INIT 13760 32 .cfa: $rsp 8 + .ra: .cfa -8 + ^
STACK CFI INIT 137a0 27 .cfa: $rsp 8 + .ra: .cfa -8 + ^
STACK CFI INIT 137d0 2b .cfa: $rsp 8 + .ra: .cfa -8 + ^
STACK CFI INIT 13800 6c .cfa: $rsp 8 + .ra: .cfa -8 + ^
STACK CFI INIT 13870 43 .cfa: $rsp 8 + .ra: .cfa -8 + ^
STACK CFI INIT 138c0 19 .cfa: $rsp 8 + .ra: .cfa -8 + ^
STACK CFI INIT 138e0 37 .cfa: $rsp 8 + .ra: .cfa -8 + ^
STACK CFI INIT 13920 3f .cfa: $rsp 8 + .ra: .cfa -8 + ^
STACK CFI 1392d $rbx: .cfa -16 + ^ .cfa: $rsp 16 +
STACK CFI 1395d .cfa: $rsp 8 +
STACK CFI 1395e $rbx: $rbx
STACK CFI INIT 13960 6c .cfa: $rsp 8 + .ra: .cfa -8 + ^
STACK CFI 13968 .cfa: $rsp 32 +
STACK CFI 139be .cfa: $rsp 8 +
STACK CFI 139c0 .cfa: $rsp 32 +
STACK CFI INIT 139d0 14 .cfa: $rsp 8 + .ra: .cfa -8 + ^
STACK CFI INIT 139f0 53 .cfa: $rsp 8 + .ra: .cfa -8 + ^
STACK CFI 139f5 $rbp: .cfa -16 + ^ .cfa: $rsp 16 +
STACK CFI 139f6 $rbx: .cfa -24 + ^ .cfa: $rsp 24 +
STACK CFI 139fd .cfa: $rsp 32 +
STACK CFI 13a2e .cfa: $rsp 24 +
STACK CFI 13a2f .cfa: $rsp 16 +
STACK CFI 13a30 .cfa: $rsp 8 +
STACK CFI 13a38 .cfa: $rsp 32 +
STACK CFI INIT 13a50 12 .cfa: $rsp 8 + .ra: .cfa -8 + ^
STACK CFI 13a58 .cfa: $rsp 16 +
STACK CFI 13a61 .cfa: $rsp 8 +
STACK CFI INIT 13a70 1cf .cfa: $rsp 8 + .ra: .cfa -8 + ^
STACK CFI 13a76 $r15: .cfa -16 + ^ .cfa: $rsp 16 +
STACK CFI 13a78 $r14: .cfa -24 + ^ .cfa: $rsp 24 +
STACK CFI 13a7a $r13: .cfa -32 + ^ .cfa: $rsp 32 +
STACK CFI 13a7f $r12: .cfa -40 + ^ .cfa: $rsp 40 +
STACK CFI 13a83 $rbp: .cfa -48 + ^ .cfa: $rsp 48 +
STACK CFI 13a87 $rbx: .cfa -56 + ^ .cfa: $rsp 56 +
STACK CFI 13a91 .cfa: $rsp 224 +
STACK CFI 13b31 .cfa: $rsp 56 +
STACK CFI 13b35 .cfa: $rsp 48 +
STACK CFI 13b36 .cfa: $rsp 40 +
STACK CFI 13b38 .cfa: $rsp 32 +
STACK CFI 13b3a .cfa: $rsp 24 +
STACK CFI 13b3c .cfa: $rsp 16 +
STACK CFI 13b3e .cfa: $rsp 8 +
STACK CFI 13b40 .cfa: $rsp 224 +
STACK CFI INIT 13c40 18 .cfa: $rsp 8 + .ra: .cfa -8 + ^
STACK CFI INIT 13c60 40 .cfa: $rsp 8 + .ra: .cfa -8 + ^
STACK CFI 13c65 $rbx: .cfa -16 + ^ .cfa: $rsp 16 +
STACK CFI 13c83 .cfa: $rsp 8 +
STACK CFI 13c88 .cfa: $rsp 16 +
STACK CFI 13c9f .cfa: $rsp 8 +
STACK CFI INIT 13ca0 5 .cfa: $rsp 8 + .ra: .cfa -8 + ^
STACK CFI INIT 13cb0 e .cfa: $rsp 8 + .ra: .cfa -8 + ^
STACK CFI INIT 13cc0 202 .cfa: $rsp 8 + .ra: .cfa -8 + ^
STACK CFI 13cc6 $r12: .cfa -16 + ^ .cfa: $rsp 16 +
STACK CFI 13cca $rbp: .cfa -24 + ^ .cfa: $rsp 24 +
STACK CFI 13ccb $rbx: .cfa -32 + ^ .cfa: $rsp 32 +
STACK CFI 13cd2 .cfa: $rsp 176 +
STACK CFI 13d25 .cfa: $rsp 32 +
STACK CFI 13d26 .cfa: $rsp 24 +
STACK CFI 13d27 .cfa: $rsp 16 +
STACK CFI 13d29 .cfa: $rsp 8 +
STACK CFI 13d30 .cfa: $rsp 176 +
STACK CFI INIT 13ed0 2b .cfa: $rsp 8 + .ra: .cfa -8 + ^
STACK CFI 13ed9 $rbx: .cfa -16 + ^ .cfa: $rsp 16 +
STACK CFI 13ef3 .cfa: $rsp 8 +
STACK CFI 13ef8 $rbx: $rbx
STACK CFI INIT 13f00 c .cfa: $rsp 8 + .ra: .cfa -8 + ^
STACK CFI INIT 13f10 341 .cfa: $rsp 8 + .ra: .cfa -8 + ^
STACK CFI INIT 14260 49 .cfa: $rsp 8 + .ra: .cfa -8 + ^
STACK CFI 1428a .cfa: $rsp 16 +
STACK CFI INIT 142b0 51 .cfa: $rsp 8 + .ra: .cfa -8 + ^
STACK CFI 142e2 .cfa: $rsp 16 +
STACK CFI INIT 14310 c .cfa: $rsp 8 + .ra: .cfa -8 + ^
STACK CFI INIT 14320 c .cfa: $rsp 8 + .ra: .cfa -8 + ^
STACK CFI INIT 14330 2bf .cfa: $rsp 8 + .ra: .cfa -8 + ^
STACK CFI INIT 145f0 e1 .cfa: $rsp 8 + .ra: .cfa -8 + ^
STACK CFI INIT 146e0 112 .cfa: $rsp 8 + .ra: .cfa -8 + ^
STACK CFI 146ec $r12: .cfa -16 + ^ .cfa: $rsp 16 +
STACK CFI 146f3 $rbx: .cfa -24 + ^ .cfa: $rsp 24 +
STACK CFI 1477a .cfa: $rsp 16 +
STACK CFI 1477c .cfa: $rsp 8 +
STACK CFI 14780 .cfa: $rsp 24 +
STACK CFI 147dc .cfa: $rsp 16 +
STACK CFI 147de .cfa: $rsp 8 +
STACK CFI 147df .cfa: $rsp 24 +
STACK CFI INIT 14800 126 .cfa: $rsp 8 + .ra: .cfa -8 + ^
STACK CFI 14806 $r12: .cfa -16 + ^ .cfa: $rsp 16 +
STACK CFI 1480a $rbp: .cfa -24 + ^ .cfa: $rsp 24 +
STACK CFI 14812 $rbx: .cfa -32 + ^ .cfa: $rsp 32 +
STACK CFI 148ae .cfa: $rsp 24 +
STACK CFI 148b3 .cfa: $rsp 16 +
STACK CFI 148b8 .cfa: $rsp 8 +
STACK CFI 148c0 .cfa: $rsp 32 +
STACK CFI 148e3 .cfa: $rsp 24 +
STACK CFI 148e8 .cfa: $rsp 16 +
STACK CFI 148ed .cfa: $rsp 8 +
STACK CFI 148f0 .cfa: $rsp 32 +
STACK CFI 148fb .cfa: $rsp 24 +
STACK CFI 14900 .cfa: $rsp 16 +
STACK CFI 14905 .cfa: $rsp 8 +
STACK CFI 14910 .cfa: $rsp 32 +
STACK CFI 1491b .cfa: $rsp 24 +
STACK CFI 14920 .cfa: $rsp 16 +
STACK CFI 14925 .cfa: $rsp 8 +
STACK CFI INIT 14930 1b5 .cfa: $rsp 8 + .ra: .cfa -8 + ^
STACK CFI 14936 $r13: .cfa -16 + ^ .cfa: $rsp 16 +
STACK CFI 1493b $r12: .cfa -24 + ^ .cfa: $rsp 24 +
STACK CFI 1493c $rbp: .cfa -32 + ^ .cfa: $rsp 32 +
STACK CFI 14940 $rbx: .cfa -40 + ^ .cfa: $rsp 40 +
STACK CFI 14a5a .cfa: $rsp 32 +
STACK CFI 14a5b .cfa: $rsp 24 +
STACK CFI 14a5d .cfa: $rsp 16 +
STACK CFI 14a5f .cfa: $rsp 8 +
STACK CFI 14a60 .cfa: $rsp 40 +
STACK CFI 14a8c .cfa: $rsp 32 +
STACK CFI 14a8d .cfa: $rsp 24 +
STACK CFI 14a8f .cfa: $rsp 16 +
STACK CFI 14a91 .cfa: $rsp 8 +
STACK CFI 14a98 .cfa: $rsp 40 +
STACK CFI 14aa4 .cfa: $rsp 32 +
STACK CFI 14aa5 .cfa: $rsp 24 +
STACK CFI 14aa7 .cfa: $rsp 16 +
STACK CFI 14aa9 .cfa: $rsp 8 +
STACK CFI 14ab0 .cfa: $rsp 40 +
STACK CFI 14abc .cfa: $rsp 32 +
STACK CFI 14abd .cfa: $rsp 24 +
STACK CFI 14abf .cfa: $rsp 16 +
STACK CFI 14ac1 .cfa: $rsp 8 +
STACK CFI 14ac2 .cfa: $rsp 40 +
STACK CFI INIT 14af0 33 .cfa: $rsp 8 + .ra: .cfa -8 + ^
STACK CFI INIT 14b30 265 .cfa: $rsp 8 + .ra: .cfa -8 + ^
STACK CFI 14b36 $r15: .cfa -16 + ^ .cfa: $rsp 16 +
STACK CFI 14b38 $r14: .cfa -24 + ^ .cfa: $rsp 24 +
STACK CFI 14b3a $r13: .cfa -32 + ^ .cfa: $rsp 32 +
STACK CFI 14b3c $r12: .cfa -40 + ^ .cfa: $rsp 40 +
STACK CFI 14b3d $rbp: .cfa -48 + ^ .cfa: $rsp 48 +
STACK CFI 14b3e $rbx: .cfa -56 + ^ .cfa: $rsp 56 +
STACK CFI 14b42 .cfa: $rsp 80 +
STACK CFI 14c95 .cfa: $rsp 56 +
STACK CFI 14c96 .cfa: $rsp 48 +
STACK CFI 14c97 .cfa: $rsp 40 +
STACK CFI 14c99 .cfa: $rsp 32 +
STACK CFI 14c9b .cfa: $rsp 24 +
STACK CFI 14c9d .cfa: $rsp 16 +
STACK CFI 14c9f .cfa: $rsp 8 +
STACK CFI 14ca0 .cfa: $rsp 80 +
STACK CFI INIT 3f2c 7 $r12: .cfa -40 + ^ $r13: .cfa -32 + ^ $r14: .cfa -24 + ^ $r15: .cfa -16 + ^ $rbp: .cfa -48 + ^ $rbx: .cfa -56 + ^ .cfa: $rsp 80 + .ra: .cfa -8 + ^
STACK CFI INIT 14da0 1de .cfa: $rsp 8 + .ra: .cfa -8 + ^
STACK CFI 14da6 $r13: .cfa -16 + ^ .cfa: $rsp 16 +
STACK CFI 14dae $r12: .cfa -24 + ^ .cfa: $rsp 24 +
STACK CFI 14daf $rbp: .cfa -32 + ^ .cfa: $rsp 32 +
STACK CFI 14db0 $rbx: .cfa -40 + ^ .cfa: $rsp 40 +
STACK CFI 14e83 .cfa: $rsp 32 +
STACK CFI 14e87 .cfa: $rsp 24 +
STACK CFI 14e8c .cfa: $rsp 16 +
STACK CFI 14e91 .cfa: $rsp 8 +
STACK CFI 14e98 .cfa: $rsp 40 +
STACK CFI 14f47 .cfa: $rsp 32 +
STACK CFI 14f4b .cfa: $rsp 24 +
STACK CFI 14f50 .cfa: $rsp 16 +
STACK CFI 14f52 .cfa: $rsp 8 +
STACK CFI 14f60 .cfa: $rsp 40 +
STACK CFI 14f67 .cfa: $rsp 32 +
STACK CFI 14f68 .cfa: $rsp 24 +
STACK CFI 14f73 .cfa: $rsp 16 +
STACK CFI 14f75 .cfa: $rsp 8 +
STACK CFI 14f76 .cfa: $rsp 40 +
STACK CFI INIT 14f80 26f .cfa: $rsp 8 + .ra: .cfa -8 + ^
STACK CFI 14f86 $r15: .cfa -16 + ^ .cfa: $rsp 16 +
STACK CFI 14f88 $r14: .cfa -24 + ^ .cfa: $rsp 24 +
STACK CFI 14f8a $r13: .cfa -32 + ^ .cfa: $rsp 32 +
STACK CFI 14f8c $r12: .cfa -40 + ^ .cfa: $rsp 40 +
STACK CFI 14f8d $rbp: .cfa -48 + ^ .cfa: $rsp 48 +
STACK CFI 14f8e $rbx: .cfa -56 + ^ .cfa: $rsp 56 +
STACK CFI 14f92 .cfa: $rsp 88 +
STACK CFI 15115 .cfa: $rsp 56 +
STACK CFI 15116 .cfa: $rsp 48 +
STACK CFI 15117 .cfa: $rsp 40 +
STACK CFI 15119 .cfa: $rsp 32 +
STACK CFI 1511b .cfa: $rsp 24 +
STACK CFI 1511d .cfa: $rsp 16 +
STACK CFI 1511f .cfa: $rsp 8 +
STACK CFI 15120 .cfa: $rsp 88 +
STACK CFI INIT 3f33 7 $r12: .cfa -40 + ^ $r13: .cfa -32 + ^ $r14: .cfa -24 + ^ $r15: .cfa -16 + ^ $rbp: .cfa -48 + ^ $rbx: .cfa -56 + ^ .cfa: $rsp 88 + .ra: .cfa -8 + ^
